

Microchip Technology PIC18 LITE Macro Assembler V1.34 build -361300703 
                                                                                               Thu Oct 09 15:53:06 2025

Microchip Technology Omniscient Code Generator (Lite mode) build 201502162209
     1                           	processor	18F4620
     2                           	fnconf	rparam,??,?,0
     3                           	opt	pw 120
     4                           	opt	lm
     5                           	psect	smallconst,global,reloc=2,class=SMALLCONST,delta=1
     6                           	psect	cinit,global,reloc=2,class=CODE,delta=1
     7                           	psect	cstackCOMRAM,global,class=COMRAM,space=1,delta=1
     8                           	psect	text0,global,reloc=2,class=CODE,delta=1
     9                           	psect	text1,global,reloc=2,class=CODE,delta=1
    10                           	psect	text2,global,reloc=2,class=CODE,delta=1
    11                           	psect	text3,global,reloc=2,class=CODE,delta=1
    12                           	psect	text4,global,reloc=2,class=CODE,delta=1
    13                           	psect	text5,global,reloc=2,class=CODE,delta=1
    14                           	psect	text6,global,reloc=2,class=CODE,delta=1
    15                           	psect	text7,global,reloc=2,class=CODE,delta=1
    16                           	psect	text8,global,reloc=2,class=CODE,delta=1
    17                           	psect	text9,global,reloc=2,class=CODE,delta=1
    18                           	psect	text10,global,reloc=2,class=CODE,delta=1
    19                           	psect	text11,global,reloc=2,class=CODE,delta=1
    20                           	psect	text12,global,reloc=2,class=CODE,delta=1
    21                           	psect	text13,global,reloc=2,class=CODE,delta=1
    22                           	psect	text14,global,reloc=2,class=CODE,delta=1
    23                           	psect	text15,global,reloc=2,class=CODE,delta=1
    24                           	psect	text16,global,reloc=2,class=CODE,delta=1
    25                           	psect	text17,global,reloc=2,class=CODE,delta=1
    26                           	psect	text18,global,reloc=2,class=CODE,delta=1
    27                           	psect	text19,global,reloc=2,class=CODE,delta=1
    28                           	psect	text20,global,reloc=2,class=CODE,delta=1
    29                           	psect	text21,global,reloc=2,class=CODE,delta=1
    30                           	psect	text22,global,reloc=2,class=CODE,delta=1
    31                           	psect	text23,global,reloc=2,class=CODE,delta=1
    32                           	psect	text24,global,reloc=2,class=CODE,delta=1
    33                           	psect	text25,global,reloc=2,class=CODE,delta=1
    34                           	psect	text26,global,reloc=2,class=CODE,delta=1
    35                           	psect	intsave_regs,global,class=BIGRAM,space=1,delta=1
    36                           	psect	rparam,global,class=COMRAM,space=1,delta=1
    37  0000                     
    38                           	psect	smallconst
    39  001000                     __psmallconst:
    40                           	opt stack 0
    41  001000  00                 	db	0
    42  001001                     _seven_seg_table:
    43                           	opt stack 0
    44  001001  C0                 	db	192
    45  001002  F9                 	db	249
    46  001003  A4                 	db	164
    47  001004  B0                 	db	176
    48  001005  99                 	db	153
    49  001006  92                 	db	146
    50  001007  82                 	db	130
    51  001008  F8                 	db	248
    52  001009  80                 	db	128
    53  00100A  90                 	db	144
    54  00100B                     __end_of_seven_seg_table:
    55                           	opt stack 0
    56  0000                     _ADCON0	set	4034
    57  0000                     _ADCON0bits	set	4034
    58  0000                     _ADCON1	set	4033
    59  0000                     _ADCON2	set	4032
    60  0000                     _ADRESH	set	4036
    61  0000                     _ADRESL	set	4035
    62  0000                     _CCP2CON	set	4026
    63  0000                     _CCPR2L	set	4027
    64  0000                     _INTCONbits	set	4082
    65  0000                     _OSCCON	set	4051
    66  0000                     _PIE1bits	set	3997
    67  0000                     _PIR1bits	set	3998
    68  0000                     _PORTAbits	set	3968
    69  0000                     _PORTB	set	3969
    70  0000                     _PORTBbits	set	3969
    71  0000                     _PORTC	set	3970
    72  0000                     _PORTCbits	set	3970
    73  0000                     _PORTD	set	3971
    74  0000                     _PORTDbits	set	3971
    75  0000                     _PORTEbits	set	3972
    76  0000                     _PR2	set	4043
    77  0000                     _RCSTA	set	4011
    78  0000                     _RCSTAbits	set	4011
    79  0000                     _SPBRG	set	4015
    80  0000                     _SPBRGH	set	4016
    81  0000                     _T0CON	set	4053
    82  0000                     _T0CONbits	set	4053
    83  0000                     _T2CON	set	4042
    84  0000                     _TMR0H	set	4055
    85  0000                     _TMR0L	set	4054
    86  0000                     _TRISA	set	3986
    87  0000                     _TRISB	set	3987
    88  0000                     _TRISCbits	set	3988
    89  0000                     _TRISD	set	3989
    90  0000                     _TXSTA	set	4012
    91  0000                     _TXSTAbits	set	4012
    92                           
    93                           ; #config settings
    94  00100B  00                 	db	0	; dummy byte at the end
    95  0000                     
    96                           	psect	cinit
    97  0016D4                     __pcinit:
    98                           	opt stack 0
    99  0016D4                     start_initialization:
   100                           	opt stack 0
   101  0016D4                     __initialization:
   102                           	opt stack 0
   103  0016D4                     end_of_initialization:
   104                           	opt stack 0
   105  0016D4                     __end_of__initialization:
   106                           	opt stack 0
   107  0016D4  0E00               	movlw	low (__Lmediumconst shr (0+16))
   108  0016D6  6EF8               	movwf	tblptru,c
   109  0016D8  0100               	movlb	0
   110  0016DA  EFDC  F009         	goto	_main	;jump to C main() function
   111                           tblptru	equ	0xFF8
   112                           
   113                           	psect	cstackCOMRAM
   114  000001                     __pcstackCOMRAM:
   115                           	opt stack 0
   116  000001                     ?_get_full_ADC:
   117                           	opt stack 0
   118  000001                     ?___ftpack:
   119                           	opt stack 0
   120  000001                     Display_Upper@num:
   121                           	opt stack 0
   122  000001                     Display_Lower@num:
   123                           	opt stack 0
   124  000001                     Wait_N_Seconds@seconds:
   125                           	opt stack 0
   126  000001                     set_NS@color:
   127                           	opt stack 0
   128  000001                     set_NSLT@color:
   129                           	opt stack 0
   130  000001                     set_EW@color:
   131                           	opt stack 0
   132  000001                     set_EWLT@color:
   133                           	opt stack 0
   134  000001                     OpenUSART@spbrg:
   135                           	opt stack 0
   136  000001                     ___ftpack@arg:
   137                           	opt stack 0
   138  000001                     ___ftge@ff1:
   139                           	opt stack 0
   140                           
   141                           ; 3 bytes @ 0x0
   142  000001                     	ds	1
   143  000002                     Wait_N_Seconds@I:
   144                           	opt stack 0
   145  000002                     PED_Control@Num_Sec:
   146                           	opt stack 0
   147                           
   148                           ; 1 bytes @ 0x1
   149  000002                     	ds	1
   150  000003                     ??_get_full_ADC:
   151  000003                     PED_Control@Direction:
   152                           	opt stack 0
   153  000003                     OpenUSART@config:
   154                           	opt stack 0
   155                           
   156                           ; 1 bytes @ 0x2
   157  000003                     	ds	1
   158  000004                     ___ftpack@exp:
   159                           	opt stack 0
   160  000004                     ___ftge@ff2:
   161                           	opt stack 0
   162                           
   163                           ; 3 bytes @ 0x3
   164  000004                     	ds	1
   165  000005                     ___ftpack@sign:
   166                           	opt stack 0
   167                           
   168                           ; 1 bytes @ 0x4
   169  000005                     	ds	1
   170  000006                     ??___ftpack:
   171                           
   172                           ; 0 bytes @ 0x5
   173  000006                     	ds	1
   174  000007                     ??___ftge:
   175                           
   176                           ; 0 bytes @ 0x6
   177  000007                     	ds	2
   178  000009                     ?___lwtoft:
   179                           	opt stack 0
   180  000009                     ___lwtoft@c:
   181                           	opt stack 0
   182                           
   183                           ; 2 bytes @ 0x8
   184  000009                     	ds	3
   185  00000C                     ?___ftmul:
   186                           	opt stack 0
   187  00000C                     ___ftmul@f1:
   188                           	opt stack 0
   189                           
   190                           ; 3 bytes @ 0xB
   191  00000C                     	ds	3
   192  00000F                     ___ftmul@f2:
   193                           	opt stack 0
   194                           
   195                           ; 3 bytes @ 0xE
   196  00000F                     	ds	3
   197  000012                     ??___ftmul:
   198                           
   199                           ; 0 bytes @ 0x11
   200  000012                     	ds	3
   201  000015                     ___ftmul@exp:
   202                           	opt stack 0
   203                           
   204                           ; 1 bytes @ 0x14
   205  000015                     	ds	1
   206  000016                     ___ftmul@f3_as_product:
   207                           	opt stack 0
   208                           
   209                           ; 3 bytes @ 0x15
   210  000016                     	ds	3
   211  000019                     ___ftmul@cntr:
   212                           	opt stack 0
   213                           
   214                           ; 1 bytes @ 0x18
   215  000019                     	ds	1
   216  00001A                     ___ftmul@sign:
   217                           	opt stack 0
   218                           
   219                           ; 1 bytes @ 0x19
   220  00001A                     	ds	1
   221  00001B                     main@voltage_v:
   222                           	opt stack 0
   223                           
   224                           ; 3 bytes @ 0x1A
   225  00001B                     	ds	3
   226  00001E                     main@adc_value:
   227                           	opt stack 0
   228                           
   229                           ; 2 bytes @ 0x1D
   230  00001E                     	ds	2
   231                           tblptru	equ	0xFF8
   232                           
   233 ;;
   234 ;;Main: autosize = 0, tempsize = 0, incstack = 0, save=0
   235 ;;
   236 ;; *************** function _main *****************
   237 ;; Defined at:
   238 ;;		line 379 in file "lab6p1.c"
   239 ;; Parameters:    Size  Location     Type
   240 ;;		None
   241 ;; Auto vars:     Size  Location     Type
   242 ;;  voltage_v       3   26[COMRAM] float 
   243 ;;  adc_value       2   29[COMRAM] unsigned int 
   244 ;; Return value:  Size  Location     Type
   245 ;;                  2  178[None  ] int 
   246 ;; Registers used:
   247 ;;		wreg, status,2, status,0, tblptrl, tblptrh, tblptru, prodl, prodh, cstack
   248 ;; Tracked objects:
   249 ;;		On entry : 0/0
   250 ;;		On exit  : 0/0
   251 ;;		Unchanged: 0/0
   252 ;; Data sizes:     COMRAM   BANK0   BANK1   BANK2   BANK3   BANK4   BANK5   BANK6   BANK7   BANK8   BANK9  BANK10  BANK1
      +1  BANK12  BANK13  BANK14  BANK15
   253 ;;      Params:         0       0       0       0       0       0       0       0       0       0       0       0       
      +0       0       0       0       0
   254 ;;      Locals:         5       0       0       0       0       0       0       0       0       0       0       0       
      +0       0       0       0       0
   255 ;;      Temps:          0       0       0       0       0       0       0       0       0       0       0       0       
      +0       0       0       0       0
   256 ;;      Totals:         5       0       0       0       0       0       0       0       0       0       0       0       
      +0       0       0       0       0
   257 ;;Total ram usage:        5 bytes
   258 ;; Hardware stack levels required when called:    4
   259 ;; This function calls:
   260 ;;		_Day_Mode
   261 ;;		_Init_ADC
   262 ;;		_Init_TRIS
   263 ;;		_Night_Mode
   264 ;;		___ftge
   265 ;;		___ftmul
   266 ;;		___lwtoft
   267 ;;		_get_full_ADC
   268 ;;		_init_UART
   269 ;; This function is called by:
   270 ;;		Startup code after reset
   271 ;; This function uses a non-reentrant model
   272 ;;
   273                           
   274                           	psect	text0
   275  0013B8                     __ptext0:
   276                           	opt stack 0
   277  0013B8                     _main:
   278                           	opt stack 27
   279                           
   280                           ;lab6p1.c: 381: Init_TRIS();
   281                           
   282                           ;incstack = 0
   283  0013B8  EC55  F00B         	call	_Init_TRIS	;wreg free
   284                           
   285                           ;lab6p1.c: 382: init_UART();
   286  0013BC  EC42  F00B         	call	_init_UART	;wreg free
   287                           
   288                           ;lab6p1.c: 383: Init_ADC();
   289  0013C0  EC5C  F00B         	call	_Init_ADC	;wreg free
   290  0013C4  D000               	goto	l1381
   291  0013C6                     l1381:
   292                           
   293                           ;lab6p1.c: 386: {
   294                           ;lab6p1.c: 387: unsigned int adc_value = get_full_ADC();
   295  0013C6  ECF4  F00A         	call	_get_full_ADC	;wreg free
   296  0013CA  C001  F01E         	movff	?_get_full_ADC,main@adc_value
   297  0013CE  C002  F01F         	movff	?_get_full_ADC+1,main@adc_value+1
   298                           
   299                           ;lab6p1.c: 389: float voltage_v = adc_value * 0.0048828;
   300  0013D2  C01E  F009         	movff	main@adc_value,___lwtoft@c
   301  0013D6  C01F  F00A         	movff	main@adc_value+1,___lwtoft@c+1
   302  0013DA  ECE1  F00A         	call	___lwtoft	;wreg free
   303  0013DE  C009  F00C         	movff	?___lwtoft,___ftmul@f1
   304  0013E2  C00A  F00D         	movff	?___lwtoft+1,___ftmul@f1+1
   305  0013E6  C00B  F00E         	movff	?___lwtoft+2,___ftmul@f1+2
   306  0013EA  0E00               	movlw	0
   307  0013EC  6E0F               	movwf	___ftmul@f2,c
   308  0013EE  0EA0               	movlw	160
   309  0013F0  6E10               	movwf	___ftmul@f2+1,c
   310  0013F2  0E3B               	movlw	59
   311  0013F4  6E11               	movwf	___ftmul@f2+2,c
   312  0013F6  EC06  F008         	call	___ftmul	;wreg free
   313  0013FA  C00C  F01B         	movff	?___ftmul,main@voltage_v
   314  0013FE  C00D  F01C         	movff	?___ftmul+1,main@voltage_v+1
   315  001402  C00E  F01D         	movff	?___ftmul+2,main@voltage_v+2
   316                           
   317                           ;lab6p1.c: 391: if(voltage_v > 2.50){
   318  001406  0E00               	movlw	0
   319  001408  6E01               	movwf	___ftge@ff1,c
   320  00140A  0E20               	movlw	32
   321  00140C  6E02               	movwf	___ftge@ff1+1,c
   322  00140E  0E40               	movlw	64
   323  001410  6E03               	movwf	___ftge@ff1+2,c
   324  001412  C01B  F004         	movff	main@voltage_v,___ftge@ff2
   325  001416  C01C  F005         	movff	main@voltage_v+1,___ftge@ff2+1
   326  00141A  C01D  F006         	movff	main@voltage_v+2,___ftge@ff2+2
   327  00141E  EC91  F009         	call	___ftge	;wreg free
   328  001422  B0D8               	btfsc	status,0,c
   329  001424  D003               	goto	l1389
   330                           
   331                           ;lab6p1.c: 393: Day_Mode();
   332  001426  ECE5  F008         	call	_Day_Mode	;wreg free
   333                           
   334                           ;lab6p1.c: 394: }
   335  00142A  D7CD               	goto	l1381
   336  00142C                     l1389:
   337                           
   338                           ;lab6p1.c: 395: else{
   339                           ;lab6p1.c: 396: Night_Mode();
   340  00142C  EC41  F009         	call	_Night_Mode	;wreg free
   341  001430  D7CA               	goto	l1381
   342  001432  EF00  F000         	goto	start
   343  001436                     __end_of_main:
   344                           	opt stack 0
   345                           tblptru	equ	0xFF8
   346                           status	equ	0xFD8
   347                           
   348 ;; *************** function _init_UART *****************
   349 ;; Defined at:
   350 ;;		line 79 in file "lab6p1.c"
   351 ;; Parameters:    Size  Location     Type
   352 ;;		None
   353 ;; Auto vars:     Size  Location     Type
   354 ;;		None
   355 ;; Return value:  Size  Location     Type
   356 ;;		None               void
   357 ;; Registers used:
   358 ;;		wreg, status,2, cstack
   359 ;; Tracked objects:
   360 ;;		On entry : 0/0
   361 ;;		On exit  : 0/0
   362 ;;		Unchanged: 0/0
   363 ;; Data sizes:     COMRAM   BANK0   BANK1   BANK2   BANK3   BANK4   BANK5   BANK6   BANK7   BANK8   BANK9  BANK10  BANK1
      +1  BANK12  BANK13  BANK14  BANK15
   364 ;;      Params:         0       0       0       0       0       0       0       0       0       0       0       0       
      +0       0       0       0       0
   365 ;;      Locals:         0       0       0       0       0       0       0       0       0       0       0       0       
      +0       0       0       0       0
   366 ;;      Temps:          0       0       0       0       0       0       0       0       0       0       0       0       
      +0       0       0       0       0
   367 ;;      Totals:         0       0       0       0       0       0       0       0       0       0       0       0       
      +0       0       0       0       0
   368 ;;Total ram usage:        0 bytes
   369 ;; Hardware stack levels used:    1
   370 ;; Hardware stack levels required when called:    1
   371 ;; This function calls:
   372 ;;		_OpenUSART
   373 ;; This function is called by:
   374 ;;		_main
   375 ;; This function uses a non-reentrant model
   376 ;;
   377                           
   378                           	psect	text1
   379  001684                     __ptext1:
   380                           	opt stack 0
   381  001684                     _init_UART:
   382                           	opt stack 29
   383                           
   384                           ;lab6p1.c: 81: OpenUSART (0b01111111 & 0b10111111 &
   385                           ;lab6p1.c: 82: 0b11111110 & 0b11111101 & 0b11111111 &
   386                           ;lab6p1.c: 83: 0b11111111, 25);
   387                           
   388                           ;incstack = 0
   389  001684  0E00               	movlw	0
   390  001686  6E02               	movwf	OpenUSART@spbrg+1,c
   391  001688  0E19               	movlw	25
   392  00168A  6E01               	movwf	OpenUSART@spbrg,c
   393  00168C  0E3C               	movlw	60
   394  00168E  EC1B  F00A         	call	_OpenUSART
   395                           
   396                           ;lab6p1.c: 84: OSCCON = 0x70;
   397  001692  0E70               	movlw	112
   398  001694  6ED3               	movwf	4051,c	;volatile
   399  001696  0012               	return		;funcret
   400  001698                     __end_of_init_UART:
   401                           	opt stack 0
   402                           tblptru	equ	0xFF8
   403                           status	equ	0xFD8
   404                           
   405 ;; *************** function _OpenUSART *****************
   406 ;; Defined at:
   407 ;;		line 73 in file "C:\Program Files (x86)\Microchip\xc8\v1.34\sources\pic18\plib\USART\uopen.c"
   408 ;; Parameters:    Size  Location     Type
   409 ;;  config          1    wreg     unsigned char 
   410 ;;  spbrg           2    0[COMRAM] unsigned int 
   411 ;; Auto vars:     Size  Location     Type
   412 ;;  config          1    2[COMRAM] unsigned char 
   413 ;; Return value:  Size  Location     Type
   414 ;;		None               void
   415 ;; Registers used:
   416 ;;		wreg, status,2
   417 ;; Tracked objects:
   418 ;;		On entry : 0/0
   419 ;;		On exit  : 0/0
   420 ;;		Unchanged: 0/0
   421 ;; Data sizes:     COMRAM   BANK0   BANK1   BANK2   BANK3   BANK4   BANK5   BANK6   BANK7   BANK8   BANK9  BANK10  BANK1
      +1  BANK12  BANK13  BANK14  BANK15
   422 ;;      Params:         2       0       0       0       0       0       0       0       0       0       0       0       
      +0       0       0       0       0
   423 ;;      Locals:         1       0       0       0       0       0       0       0       0       0       0       0       
      +0       0       0       0       0
   424 ;;      Temps:          0       0       0       0       0       0       0       0       0       0       0       0       
      +0       0       0       0       0
   425 ;;      Totals:         3       0       0       0       0       0       0       0       0       0       0       0       
      +0       0       0       0       0
   426 ;;Total ram usage:        3 bytes
   427 ;; Hardware stack levels used:    1
   428 ;; This function calls:
   429 ;;		Nothing
   430 ;; This function is called by:
   431 ;;		_init_UART
   432 ;; This function uses a non-reentrant model
   433 ;;
   434                           
   435                           	psect	text2
   436  001436                     __ptext2:
   437                           	opt stack 0
   438  001436                     _OpenUSART:
   439                           	opt stack 29
   440                           
   441                           ;incstack = 0
   442                           ;OpenUSART@config stored from wreg
   443  001436  6E03               	movwf	OpenUSART@config,c
   444  001438  0E00               	movlw	0
   445  00143A  6EAC               	movwf	4012,c	;volatile
   446  00143C  0E00               	movlw	0
   447  00143E  6EAB               	movwf	4011,c	;volatile
   448  001440  A003               	btfss	OpenUSART@config,0,c
   449  001442  D002               	goto	l1159
   450  001444  88AC               	bsf	4012,4,c	;volatile
   451  001446  D000               	goto	l1159
   452  001448                     l1159:
   453  001448  A203               	btfss	OpenUSART@config,1,c
   454  00144A  D003               	goto	l1163
   455  00144C  8CAC               	bsf	4012,6,c	;volatile
   456  00144E  8CAB               	bsf	4011,6,c	;volatile
   457  001450  D000               	goto	l1163
   458  001452                     l1163:
   459  001452  A403               	btfss	OpenUSART@config,2,c
   460  001454  D002               	goto	l1167
   461  001456  8EAC               	bsf	4012,7,c	;volatile
   462  001458  D000               	goto	l1167
   463  00145A                     l1167:
   464  00145A  A603               	btfss	OpenUSART@config,3,c
   465  00145C  D002               	goto	l208
   466  00145E  88AB               	bsf	4011,4,c	;volatile
   467  001460  D002               	goto	l1171
   468  001462                     l208:
   469  001462  8AAB               	bsf	4011,5,c	;volatile
   470  001464  D000               	goto	l1171
   471  001466                     l1171:
   472  001466  B803               	btfsc	OpenUSART@config,4,c
   473  001468  84AC               	bsf	4012,2,c	;volatile
   474  00146A  989E               	bcf	3998,4,c	;volatile
   475  00146C  AA03               	btfss	OpenUSART@config,5,c
   476  00146E  D002               	goto	l1179
   477  001470  86AB               	bsf	4011,3,c	;volatile
   478  001472  D000               	goto	l1179
   479  001474                     l1179:
   480  001474  AC03               	btfss	OpenUSART@config,6,c
   481  001476  D002               	goto	l212
   482  001478  8A9D               	bsf	3997,5,c	;volatile
   483  00147A  D001               	goto	l213
   484  00147C                     l212:
   485  00147C  9A9D               	bcf	3997,5,c	;volatile
   486  00147E                     l213:
   487  00147E  9A9E               	bcf	3998,5,c	;volatile
   488  001480  AE03               	btfss	OpenUSART@config,7,c
   489  001482  D002               	goto	l214
   490  001484  889D               	bsf	3997,4,c	;volatile
   491  001486  D001               	goto	l215
   492  001488                     l214:
   493  001488  989D               	bcf	3997,4,c	;volatile
   494  00148A                     l215:
   495  00148A  C001  FFAF         	movff	OpenUSART@spbrg,4015	;volatile
   496  00148E  5002               	movf	OpenUSART@spbrg+1,w,c
   497  001490  6EB0               	movwf	4016,c	;volatile
   498  001492  8AAC               	bsf	4012,5,c	;volatile
   499  001494  8EAB               	bsf	4011,7,c	;volatile
   500  001496  9C94               	bcf	3988,6,c	;volatile
   501  001498  8E94               	bsf	3988,7,c	;volatile
   502  00149A  B8AC               	btfsc	4012,4,c	;volatile
   503  00149C  BEAC               	btfsc	4012,7,c	;volatile
   504  00149E  D002               	goto	l217
   505  0014A0  8C94               	bsf	3988,6,c	;volatile
   506  0014A2  D000               	goto	l217
   507  0014A4                     l217:
   508  0014A4  0012               	return		;funcret
   509  0014A6                     __end_of_OpenUSART:
   510                           	opt stack 0
   511                           tblptru	equ	0xFF8
   512                           status	equ	0xFD8
   513                           
   514 ;; *************** function _get_full_ADC *****************
   515 ;; Defined at:
   516 ;;		line 366 in file "lab6p1.c"
   517 ;; Parameters:    Size  Location     Type
   518 ;;		None
   519 ;; Auto vars:     Size  Location     Type
   520 ;;		None
   521 ;; Return value:  Size  Location     Type
   522 ;;                  2    0[COMRAM] unsigned int 
   523 ;; Registers used:
   524 ;;		wreg, status,2, status,0
   525 ;; Tracked objects:
   526 ;;		On entry : 0/0
   527 ;;		On exit  : 0/0
   528 ;;		Unchanged: 0/0
   529 ;; Data sizes:     COMRAM   BANK0   BANK1   BANK2   BANK3   BANK4   BANK5   BANK6   BANK7   BANK8   BANK9  BANK10  BANK1
      +1  BANK12  BANK13  BANK14  BANK15
   530 ;;      Params:         2       0       0       0       0       0       0       0       0       0       0       0       
      +0       0       0       0       0
   531 ;;      Locals:         0       0       0       0       0       0       0       0       0       0       0       0       
      +0       0       0       0       0
   532 ;;      Temps:          2       0       0       0       0       0       0       0       0       0       0       0       
      +0       0       0       0       0
   533 ;;      Totals:         4       0       0       0       0       0       0       0       0       0       0       0       
      +0       0       0       0       0
   534 ;;Total ram usage:        4 bytes
   535 ;; Hardware stack levels used:    1
   536 ;; This function calls:
   537 ;;		Nothing
   538 ;; This function is called by:
   539 ;;		_main
   540 ;; This function uses a non-reentrant model
   541 ;;
   542                           
   543                           	psect	text3
   544  0015E8                     __ptext3:
   545                           	opt stack 0
   546  0015E8                     _get_full_ADC:
   547                           	opt stack 30
   548                           
   549                           ;lab6p1.c: 367: ADCON0bits.GO = 1;
   550                           
   551                           ;incstack = 0
   552  0015E8  82C2               	bsf	4034,1,c	;volatile
   553                           
   554                           ;lab6p1.c: 368: while (ADCON0bits.DONE == 1);
   555  0015EA  D000               	goto	l170
   556  0015EC                     l170:
   557  0015EC  B2C2               	btfsc	4034,1,c	;volatile
   558  0015EE  D7FE               	goto	l170
   559                           
   560                           ;lab6p1.c: 369: return (ADRESH << 8) + ADRESL;
   561  0015F0  50C4               	movf	4036,w,c	;volatile
   562  0015F2  6E04               	movwf	(??_get_full_ADC+1)& (0+255),c
   563  0015F4  6A03               	clrf	??_get_full_ADC& (0+255),c
   564  0015F6  50C3               	movf	4035,w,c	;volatile
   565  0015F8  2403               	addwf	??_get_full_ADC,w,c
   566  0015FA  6E01               	movwf	?_get_full_ADC,c
   567  0015FC  0E00               	movlw	0
   568  0015FE  2004               	addwfc	??_get_full_ADC+1,w,c
   569  001600  6E02               	movwf	?_get_full_ADC+1,c
   570  001602  D000               	goto	l173
   571  001604                     l173:
   572  001604  0012               	return		;funcret
   573  001606                     __end_of_get_full_ADC:
   574                           	opt stack 0
   575                           tblptru	equ	0xFF8
   576                           status	equ	0xFD8
   577                           
   578 ;; *************** function ___lwtoft *****************
   579 ;; Defined at:
   580 ;;		line 28 in file "C:\Program Files (x86)\Microchip\xc8\v1.34\sources\common\lwtoft.c"
   581 ;; Parameters:    Size  Location     Type
   582 ;;  c               2    8[COMRAM] unsigned int 
   583 ;; Auto vars:     Size  Location     Type
   584 ;;		None
   585 ;; Return value:  Size  Location     Type
   586 ;;                  3    8[COMRAM] float 
   587 ;; Registers used:
   588 ;;		wreg, status,2, status,0, cstack
   589 ;; Tracked objects:
   590 ;;		On entry : 0/0
   591 ;;		On exit  : 0/0
   592 ;;		Unchanged: 0/0
   593 ;; Data sizes:     COMRAM   BANK0   BANK1   BANK2   BANK3   BANK4   BANK5   BANK6   BANK7   BANK8   BANK9  BANK10  BANK1
      +1  BANK12  BANK13  BANK14  BANK15
   594 ;;      Params:         3       0       0       0       0       0       0       0       0       0       0       0       
      +0       0       0       0       0
   595 ;;      Locals:         0       0       0       0       0       0       0       0       0       0       0       0       
      +0       0       0       0       0
   596 ;;      Temps:          0       0       0       0       0       0       0       0       0       0       0       0       
      +0       0       0       0       0
   597 ;;      Totals:         3       0       0       0       0       0       0       0       0       0       0       0       
      +0       0       0       0       0
   598 ;;Total ram usage:        3 bytes
   599 ;; Hardware stack levels used:    1
   600 ;; Hardware stack levels required when called:    1
   601 ;; This function calls:
   602 ;;		___ftpack
   603 ;; This function is called by:
   604 ;;		_main
   605 ;; This function uses a non-reentrant model
   606 ;;
   607                           
   608                           	psect	text4
   609  0015C2                     __ptext4:
   610                           	opt stack 0
   611  0015C2                     ___lwtoft:
   612                           	opt stack 29
   613                           
   614                           ;incstack = 0
   615  0015C2  C009  F001         	movff	___lwtoft@c,___ftpack@arg
   616  0015C6  C00A  F002         	movff	___lwtoft@c+1,___ftpack@arg+1
   617  0015CA  6A03               	clrf	___ftpack@arg+2,c
   618  0015CC  0E8E               	movlw	142
   619  0015CE  6E04               	movwf	___ftpack@exp,c
   620  0015D0  0E00               	movlw	0
   621  0015D2  6E05               	movwf	___ftpack@sign,c
   622  0015D4  EC82  F008         	call	___ftpack	;wreg free
   623  0015D8  C001  F009         	movff	?___ftpack,?___lwtoft
   624  0015DC  C002  F00A         	movff	?___ftpack+1,?___lwtoft+1
   625  0015E0  C003  F00B         	movff	?___ftpack+2,?___lwtoft+2
   626  0015E4  D000               	goto	l765
   627  0015E6                     l765:
   628  0015E6  0012               	return		;funcret
   629  0015E8                     __end_of___lwtoft:
   630                           	opt stack 0
   631                           tblptru	equ	0xFF8
   632                           status	equ	0xFD8
   633                           
   634 ;; *************** function ___ftmul *****************
   635 ;; Defined at:
   636 ;;		line 62 in file "C:\Program Files (x86)\Microchip\xc8\v1.34\sources\common\ftmul.c"
   637 ;; Parameters:    Size  Location     Type
   638 ;;  f1              3   11[COMRAM] float 
   639 ;;  f2              3   14[COMRAM] float 
   640 ;; Auto vars:     Size  Location     Type
   641 ;;  f3_as_produc    3   21[COMRAM] unsigned um
   642 ;;  sign            1   25[COMRAM] unsigned char 
   643 ;;  cntr            1   24[COMRAM] unsigned char 
   644 ;;  exp             1   20[COMRAM] unsigned char 
   645 ;; Return value:  Size  Location     Type
   646 ;;                  3   11[COMRAM] float 
   647 ;; Registers used:
   648 ;;		wreg, status,2, status,0, cstack
   649 ;; Tracked objects:
   650 ;;		On entry : 0/0
   651 ;;		On exit  : 0/0
   652 ;;		Unchanged: 0/0
   653 ;; Data sizes:     COMRAM   BANK0   BANK1   BANK2   BANK3   BANK4   BANK5   BANK6   BANK7   BANK8   BANK9  BANK10  BANK1
      +1  BANK12  BANK13  BANK14  BANK15
   654 ;;      Params:         6       0       0       0       0       0       0       0       0       0       0       0       
      +0       0       0       0       0
   655 ;;      Locals:         6       0       0       0       0       0       0       0       0       0       0       0       
      +0       0       0       0       0
   656 ;;      Temps:          3       0       0       0       0       0       0       0       0       0       0       0       
      +0       0       0       0       0
   657 ;;      Totals:        15       0       0       0       0       0       0       0       0       0       0       0       
      +0       0       0       0       0
   658 ;;Total ram usage:       15 bytes
   659 ;; Hardware stack levels used:    1
   660 ;; Hardware stack levels required when called:    1
   661 ;; This function calls:
   662 ;;		___ftpack
   663 ;; This function is called by:
   664 ;;		_main
   665 ;; This function uses a non-reentrant model
   666 ;;
   667                           
   668                           	psect	text5
   669  00100C                     __ptext5:
   670                           	opt stack 0
   671  00100C                     ___ftmul:
   672                           	opt stack 29
   673                           
   674                           ;incstack = 0
   675  00100C  C00E  F012         	movff	___ftmul@f1+2,??___ftmul
   676  001010  6A13               	clrf	(??___ftmul+1)& (0+255),c
   677  001012  6A14               	clrf	(??___ftmul+2)& (0+255),c
   678  001014  340D               	rlcf	___ftmul@f1+1,w,c
   679  001016  3612               	rlcf	??___ftmul& (0+255),f,c
   680  001018  E301               	bnc	u671
   681  00101A  8013               	bsf	(??___ftmul+1)& (0+255),0,c
   682  00101C                     u671:
   683  00101C  5012               	movf	??___ftmul,w,c
   684  00101E  6E15               	movwf	___ftmul@exp,c
   685  001020  5015               	movf	___ftmul@exp,w,c
   686  001022  A4D8               	btfss	status,2,c
   687  001024  D002               	goto	l1315
   688  001026  D00E               	goto	l1317
   689  001028  D06C               	goto	l615
   690  00102A                     l1315:
   691  00102A  C011  F012         	movff	___ftmul@f2+2,??___ftmul
   692  00102E  6A13               	clrf	(??___ftmul+1)& (0+255),c
   693  001030  6A14               	clrf	(??___ftmul+2)& (0+255),c
   694  001032  3410               	rlcf	___ftmul@f2+1,w,c
   695  001034  3612               	rlcf	??___ftmul& (0+255),f,c
   696  001036  E301               	bnc	u691
   697  001038  8013               	bsf	(??___ftmul+1)& (0+255),0,c
   698  00103A                     u691:
   699  00103A  5012               	movf	??___ftmul,w,c
   700  00103C  6E1A               	movwf	___ftmul@sign,c
   701  00103E  501A               	movf	___ftmul@sign,w,c
   702  001040  A4D8               	btfss	status,2,c
   703  001042  D007               	goto	l1321
   704  001044                     l1317:
   705  001044  0E00               	movlw	0
   706  001046  6E0C               	movwf	?___ftmul,c
   707  001048  0E00               	movlw	0
   708  00104A  6E0D               	movwf	?___ftmul+1,c
   709  00104C  0E00               	movlw	0
   710  00104E  6E0E               	movwf	?___ftmul+2,c
   711  001050  D058               	goto	l615
   712  001052                     l1321:
   713  001052  501A               	movf	___ftmul@sign,w,c
   714  001054  0F7B               	addlw	123
   715  001056  2615               	addwf	___ftmul@exp,f,c
   716  001058  C00E  F01A         	movff	___ftmul@f1+2,___ftmul@sign
   717  00105C  5011               	movf	___ftmul@f2+2,w,c
   718  00105E  1A1A               	xorwf	___ftmul@sign,f,c
   719  001060  0E80               	movlw	128
   720  001062  161A               	andwf	___ftmul@sign,f,c
   721  001064  8E0D               	bsf	___ftmul@f1+1,7,c
   722  001066  8E10               	bsf	___ftmul@f2+1,7,c
   723  001068  0EFF               	movlw	255
   724  00106A  160F               	andwf	___ftmul@f2,f,c
   725  00106C  0EFF               	movlw	255
   726  00106E  1610               	andwf	___ftmul@f2+1,f,c
   727  001070  0E00               	movlw	0
   728  001072  1611               	andwf	___ftmul@f2+2,f,c
   729  001074  0E00               	movlw	0
   730  001076  6E16               	movwf	___ftmul@f3_as_product,c
   731  001078  0E00               	movlw	0
   732  00107A  6E17               	movwf	___ftmul@f3_as_product+1,c
   733  00107C  0E00               	movlw	0
   734  00107E  6E18               	movwf	___ftmul@f3_as_product+2,c
   735  001080  0E07               	movlw	7
   736  001082  6E19               	movwf	___ftmul@cntr,c
   737  001084  D000               	goto	l1335
   738  001086                     l1335:
   739  001086  A00C               	btfss	___ftmul@f1,0,c
   740  001088  D007               	goto	l1339
   741  00108A  500F               	movf	___ftmul@f2,w,c
   742  00108C  2616               	addwf	___ftmul@f3_as_product,f,c
   743  00108E  5010               	movf	___ftmul@f2+1,w,c
   744  001090  2217               	addwfc	___ftmul@f3_as_product+1,f,c
   745  001092  5011               	movf	___ftmul@f2+2,w,c
   746  001094  2218               	addwfc	___ftmul@f3_as_product+2,f,c
   747  001096  D000               	goto	l1339
   748  001098                     l1339:
   749  001098  90D8               	bcf	status,0,c
   750  00109A  320E               	rrcf	___ftmul@f1+2,f,c
   751  00109C  320D               	rrcf	___ftmul@f1+1,f,c
   752  00109E  320C               	rrcf	___ftmul@f1,f,c
   753  0010A0  90D8               	bcf	status,0,c
   754  0010A2  360F               	rlcf	___ftmul@f2,f,c
   755  0010A4  3610               	rlcf	___ftmul@f2+1,f,c
   756  0010A6  3611               	rlcf	___ftmul@f2+2,f,c
   757  0010A8  2E19               	decfsz	___ftmul@cntr,f,c
   758  0010AA  D7ED               	goto	l1335
   759  0010AC  D000               	goto	l1343
   760  0010AE                     l1343:
   761  0010AE  0E09               	movlw	9
   762  0010B0  6E19               	movwf	___ftmul@cntr,c
   763  0010B2  D000               	goto	l1345
   764  0010B4                     l1345:
   765  0010B4  A00C               	btfss	___ftmul@f1,0,c
   766  0010B6  D007               	goto	l1349
   767  0010B8  500F               	movf	___ftmul@f2,w,c
   768  0010BA  2616               	addwf	___ftmul@f3_as_product,f,c
   769  0010BC  5010               	movf	___ftmul@f2+1,w,c
   770  0010BE  2217               	addwfc	___ftmul@f3_as_product+1,f,c
   771  0010C0  5011               	movf	___ftmul@f2+2,w,c
   772  0010C2  2218               	addwfc	___ftmul@f3_as_product+2,f,c
   773  0010C4  D000               	goto	l1349
   774  0010C6                     l1349:
   775  0010C6  90D8               	bcf	status,0,c
   776  0010C8  320E               	rrcf	___ftmul@f1+2,f,c
   777  0010CA  320D               	rrcf	___ftmul@f1+1,f,c
   778  0010CC  320C               	rrcf	___ftmul@f1,f,c
   779  0010CE  90D8               	bcf	status,0,c
   780  0010D0  3218               	rrcf	___ftmul@f3_as_product+2,f,c
   781  0010D2  3217               	rrcf	___ftmul@f3_as_product+1,f,c
   782  0010D4  3216               	rrcf	___ftmul@f3_as_product,f,c
   783  0010D6  2E19               	decfsz	___ftmul@cntr,f,c
   784  0010D8  D7ED               	goto	l1345
   785  0010DA  D000               	goto	l1353
   786  0010DC                     l1353:
   787  0010DC  C016  F001         	movff	___ftmul@f3_as_product,___ftpack@arg
   788  0010E0  C017  F002         	movff	___ftmul@f3_as_product+1,___ftpack@arg+1
   789  0010E4  C018  F003         	movff	___ftmul@f3_as_product+2,___ftpack@arg+2
   790  0010E8  C015  F004         	movff	___ftmul@exp,___ftpack@exp
   791  0010EC  C01A  F005         	movff	___ftmul@sign,___ftpack@sign
   792  0010F0  EC82  F008         	call	___ftpack	;wreg free
   793  0010F4  C001  F00C         	movff	?___ftpack,?___ftmul
   794  0010F8  C002  F00D         	movff	?___ftpack+1,?___ftmul+1
   795  0010FC  C003  F00E         	movff	?___ftpack+2,?___ftmul+2
   796  001100  D000               	goto	l615
   797  001102                     l615:
   798  001102  0012               	return		;funcret
   799  001104                     __end_of___ftmul:
   800                           	opt stack 0
   801                           tblptru	equ	0xFF8
   802                           status	equ	0xFD8
   803                           
   804 ;; *************** function ___ftpack *****************
   805 ;; Defined at:
   806 ;;		line 62 in file "C:\Program Files (x86)\Microchip\xc8\v1.34\sources\common\float.c"
   807 ;; Parameters:    Size  Location     Type
   808 ;;  arg             3    0[COMRAM] unsigned um
   809 ;;  exp             1    3[COMRAM] unsigned char 
   810 ;;  sign            1    4[COMRAM] unsigned char 
   811 ;; Auto vars:     Size  Location     Type
   812 ;;		None
   813 ;; Return value:  Size  Location     Type
   814 ;;                  3    0[COMRAM] float 
   815 ;; Registers used:
   816 ;;		wreg, status,2, status,0
   817 ;; Tracked objects:
   818 ;;		On entry : 0/0
   819 ;;		On exit  : 0/0
   820 ;;		Unchanged: 0/0
   821 ;; Data sizes:     COMRAM   BANK0   BANK1   BANK2   BANK3   BANK4   BANK5   BANK6   BANK7   BANK8   BANK9  BANK10  BANK1
      +1  BANK12  BANK13  BANK14  BANK15
   822 ;;      Params:         5       0       0       0       0       0       0       0       0       0       0       0       
      +0       0       0       0       0
   823 ;;      Locals:         0       0       0       0       0       0       0       0       0       0       0       0       
      +0       0       0       0       0
   824 ;;      Temps:          3       0       0       0       0       0       0       0       0       0       0       0       
      +0       0       0       0       0
   825 ;;      Totals:         8       0       0       0       0       0       0       0       0       0       0       0       
      +0       0       0       0       0
   826 ;;Total ram usage:        8 bytes
   827 ;; Hardware stack levels used:    1
   828 ;; This function calls:
   829 ;;		Nothing
   830 ;; This function is called by:
   831 ;;		___ftmul
   832 ;;		___lwtoft
   833 ;; This function uses a non-reentrant model
   834 ;;
   835                           
   836                           	psect	text6
   837  001104                     __ptext6:
   838                           	opt stack 0
   839  001104                     ___ftpack:
   840                           	opt stack 29
   841                           
   842                           ;incstack = 0
   843  001104  5004               	movf	___ftpack@exp,w,c
   844  001106  B4D8               	btfsc	status,2,c
   845  001108  D005               	goto	l1231
   846  00110A  5001               	movf	___ftpack@arg,w,c
   847  00110C  1002               	iorwf	___ftpack@arg+1,w,c
   848  00110E  1003               	iorwf	___ftpack@arg+2,w,c
   849  001110  A4D8               	btfss	status,2,c
   850  001112  D00E               	goto	l1237
   851  001114                     l1231:
   852  001114  0E00               	movlw	0
   853  001116  6E01               	movwf	?___ftpack,c
   854  001118  0E00               	movlw	0
   855  00111A  6E02               	movwf	?___ftpack+1,c
   856  00111C  0E00               	movlw	0
   857  00111E  6E03               	movwf	?___ftpack+2,c
   858  001120  D053               	goto	l528
   859  001122  D006               	goto	l1237
   860  001124                     l1235:
   861  001124  2A04               	incf	___ftpack@exp,f,c
   862  001126  90D8               	bcf	status,0,c
   863  001128  3203               	rrcf	___ftpack@arg+2,f,c
   864  00112A  3202               	rrcf	___ftpack@arg+1,f,c
   865  00112C  3201               	rrcf	___ftpack@arg,f,c
   866  00112E  D000               	goto	l1237
   867  001130                     l1237:
   868  001130  0E00               	movlw	0
   869  001132  1401               	andwf	___ftpack@arg,w,c
   870  001134  6E06               	movwf	??___ftpack& (0+255),c
   871  001136  0E00               	movlw	0
   872  001138  1402               	andwf	___ftpack@arg+1,w,c
   873  00113A  6E07               	movwf	(??___ftpack+1)& (0+255),c
   874  00113C  0EFE               	movlw	254
   875  00113E  1403               	andwf	___ftpack@arg+2,w,c
   876  001140  6E08               	movwf	(??___ftpack+2)& (0+255),c
   877  001142  5006               	movf	??___ftpack,w,c
   878  001144  1007               	iorwf	??___ftpack+1,w,c
   879  001146  1008               	iorwf	??___ftpack+2,w,c
   880  001148  B4D8               	btfsc	status,2,c
   881  00114A  D00E               	goto	l1243
   882  00114C  D7EB               	goto	l1235
   883  00114E  D00C               	goto	l1243
   884  001150                     l1239:
   885  001150  2A04               	incf	___ftpack@exp,f,c
   886  001152  0E01               	movlw	1
   887  001154  2601               	addwf	___ftpack@arg,f,c
   888  001156  0E00               	movlw	0
   889  001158  2202               	addwfc	___ftpack@arg+1,f,c
   890  00115A  0E00               	movlw	0
   891  00115C  2203               	addwfc	___ftpack@arg+2,f,c
   892  00115E  90D8               	bcf	status,0,c
   893  001160  3203               	rrcf	___ftpack@arg+2,f,c
   894  001162  3202               	rrcf	___ftpack@arg+1,f,c
   895  001164  3201               	rrcf	___ftpack@arg,f,c
   896  001166  D000               	goto	l1243
   897  001168                     l1243:
   898  001168  0E00               	movlw	0
   899  00116A  1401               	andwf	___ftpack@arg,w,c
   900  00116C  6E06               	movwf	??___ftpack& (0+255),c
   901  00116E  0E00               	movlw	0
   902  001170  1402               	andwf	___ftpack@arg+1,w,c
   903  001172  6E07               	movwf	(??___ftpack+1)& (0+255),c
   904  001174  0EFF               	movlw	255
   905  001176  1403               	andwf	___ftpack@arg+2,w,c
   906  001178  6E08               	movwf	(??___ftpack+2)& (0+255),c
   907  00117A  5006               	movf	??___ftpack,w,c
   908  00117C  1007               	iorwf	??___ftpack+1,w,c
   909  00117E  1008               	iorwf	??___ftpack+2,w,c
   910  001180  B4D8               	btfsc	status,2,c
   911  001182  D008               	goto	l1247
   912  001184  D7E5               	goto	l1239
   913  001186  D006               	goto	l1247
   914  001188                     l1245:
   915  001188  0604               	decf	___ftpack@exp,f,c
   916  00118A  90D8               	bcf	status,0,c
   917  00118C  3601               	rlcf	___ftpack@arg,f,c
   918  00118E  3602               	rlcf	___ftpack@arg+1,f,c
   919  001190  3603               	rlcf	___ftpack@arg+2,f,c
   920  001192  D000               	goto	l1247
   921  001194                     l1247:
   922  001194  BE02               	btfsc	___ftpack@arg+1,7,c
   923  001196  D004               	goto	l539
   924  001198  0E02               	movlw	2
   925  00119A  6004               	cpfslt	___ftpack@exp,c
   926  00119C  D7F5               	goto	l1245
   927  00119E  D000               	goto	l539
   928  0011A0                     l539:
   929  0011A0  B004               	btfsc	___ftpack@exp,0,c
   930  0011A2  D002               	goto	l1253
   931  0011A4  9E02               	bcf	___ftpack@arg+1,7,c
   932  0011A6  D000               	goto	l1253
   933  0011A8                     l1253:
   934  0011A8  90D8               	bcf	status,0,c
   935  0011AA  3204               	rrcf	___ftpack@exp,f,c
   936  0011AC  5004               	movf	___ftpack@exp,w,c
   937  0011AE  1203               	iorwf	___ftpack@arg+2,f,c
   938  0011B0  5005               	movf	___ftpack@sign,w,c
   939  0011B2  B4D8               	btfsc	status,2,c
   940  0011B4  D002               	goto	l1259
   941  0011B6  8E03               	bsf	___ftpack@arg+2,7,c
   942  0011B8  D000               	goto	l1259
   943  0011BA                     l1259:
   944  0011BA  C001  F001         	movff	___ftpack@arg,?___ftpack
   945  0011BE  C002  F002         	movff	___ftpack@arg+1,?___ftpack+1
   946  0011C2  C003  F003         	movff	___ftpack@arg+2,?___ftpack+2
   947  0011C6  D000               	goto	l528
   948  0011C8                     l528:
   949  0011C8  0012               	return		;funcret
   950  0011CA                     __end_of___ftpack:
   951                           	opt stack 0
   952                           tblptru	equ	0xFF8
   953                           status	equ	0xFD8
   954                           
   955 ;; *************** function ___ftge *****************
   956 ;; Defined at:
   957 ;;		line 4 in file "C:\Program Files (x86)\Microchip\xc8\v1.34\sources\common\ftge.c"
   958 ;; Parameters:    Size  Location     Type
   959 ;;  ff1             3    0[COMRAM] float 
   960 ;;  ff2             3    3[COMRAM] float 
   961 ;; Auto vars:     Size  Location     Type
   962 ;;		None
   963 ;; Return value:  Size  Location     Type
   964 ;;		None               void
   965 ;; Registers used:
   966 ;;		wreg, status,2, status,0
   967 ;; Tracked objects:
   968 ;;		On entry : 0/0
   969 ;;		On exit  : 0/0
   970 ;;		Unchanged: 0/0
   971 ;; Data sizes:     COMRAM   BANK0   BANK1   BANK2   BANK3   BANK4   BANK5   BANK6   BANK7   BANK8   BANK9  BANK10  BANK1
      +1  BANK12  BANK13  BANK14  BANK15
   972 ;;      Params:         6       0       0       0       0       0       0       0       0       0       0       0       
      +0       0       0       0       0
   973 ;;      Locals:         0       0       0       0       0       0       0       0       0       0       0       0       
      +0       0       0       0       0
   974 ;;      Temps:          3       0       0       0       0       0       0       0       0       0       0       0       
      +0       0       0       0       0
   975 ;;      Totals:         9       0       0       0       0       0       0       0       0       0       0       0       
      +0       0       0       0       0
   976 ;;Total ram usage:        9 bytes
   977 ;; Hardware stack levels used:    1
   978 ;; This function calls:
   979 ;;		Nothing
   980 ;; This function is called by:
   981 ;;		_main
   982 ;; This function uses a non-reentrant model
   983 ;;
   984                           
   985                           	psect	text7
   986  001322                     __ptext7:
   987                           	opt stack 0
   988  001322                     ___ftge:
   989                           	opt stack 30
   990                           
   991                           ;incstack = 0
   992  001322  AE03               	btfss	___ftge@ff1+2,7,c
   993  001324  D017               	goto	l1361
   994  001326  C001  F007         	movff	___ftge@ff1,??___ftge
   995  00132A  C002  F008         	movff	___ftge@ff1+1,??___ftge+1
   996  00132E  C003  F009         	movff	___ftge@ff1+2,??___ftge+2
   997  001332  1E07               	comf	??___ftge,f,c
   998  001334  1E08               	comf	??___ftge+1,f,c
   999  001336  1E09               	comf	??___ftge+2,f,c
  1000  001338  2A07               	incf	??___ftge,f,c
  1001  00133A  0E00               	movlw	0
  1002  00133C  2208               	addwfc	??___ftge+1,f,c
  1003  00133E  2209               	addwfc	??___ftge+2,f,c
  1004  001340  0E00               	movlw	0
  1005  001342  2407               	addwf	??___ftge,w,c
  1006  001344  6E01               	movwf	___ftge@ff1,c
  1007  001346  0E00               	movlw	0
  1008  001348  2008               	addwfc	??___ftge+1,w,c
  1009  00134A  6E02               	movwf	___ftge@ff1+1,c
  1010  00134C  0E80               	movlw	128
  1011  00134E  2009               	addwfc	??___ftge+2,w,c
  1012  001350  6E03               	movwf	___ftge@ff1+2,c
  1013  001352  D000               	goto	l1361
  1014  001354                     l1361:
  1015  001354  AE06               	btfss	___ftge@ff2+2,7,c
  1016  001356  D017               	goto	l1365
  1017  001358  C004  F007         	movff	___ftge@ff2,??___ftge
  1018  00135C  C005  F008         	movff	___ftge@ff2+1,??___ftge+1
  1019  001360  C006  F009         	movff	___ftge@ff2+2,??___ftge+2
  1020  001364  1E07               	comf	??___ftge,f,c
  1021  001366  1E08               	comf	??___ftge+1,f,c
  1022  001368  1E09               	comf	??___ftge+2,f,c
  1023  00136A  2A07               	incf	??___ftge,f,c
  1024  00136C  0E00               	movlw	0
  1025  00136E  2208               	addwfc	??___ftge+1,f,c
  1026  001370  2209               	addwfc	??___ftge+2,f,c
  1027  001372  0E00               	movlw	0
  1028  001374  2407               	addwf	??___ftge,w,c
  1029  001376  6E04               	movwf	___ftge@ff2,c
  1030  001378  0E00               	movlw	0
  1031  00137A  2008               	addwfc	??___ftge+1,w,c
  1032  00137C  6E05               	movwf	___ftge@ff2+1,c
  1033  00137E  0E80               	movlw	128
  1034  001380  2009               	addwfc	??___ftge+2,w,c
  1035  001382  6E06               	movwf	___ftge@ff2+2,c
  1036  001384  D000               	goto	l1365
  1037  001386                     l1365:
  1038  001386  0E00               	movlw	0
  1039  001388  1A01               	xorwf	___ftge@ff1,f,c
  1040  00138A  0E00               	movlw	0
  1041  00138C  1A02               	xorwf	___ftge@ff1+1,f,c
  1042  00138E  0E80               	movlw	128
  1043  001390  1A03               	xorwf	___ftge@ff1+2,f,c
  1044  001392  0E00               	movlw	0
  1045  001394  1A04               	xorwf	___ftge@ff2,f,c
  1046  001396  0E00               	movlw	0
  1047  001398  1A05               	xorwf	___ftge@ff2+1,f,c
  1048  00139A  0E80               	movlw	128
  1049  00139C  1A06               	xorwf	___ftge@ff2+2,f,c
  1050  00139E  5004               	movf	___ftge@ff2,w,c
  1051  0013A0  5C01               	subwf	___ftge@ff1,w,c
  1052  0013A2  5005               	movf	___ftge@ff2+1,w,c
  1053  0013A4  5802               	subwfb	___ftge@ff1+1,w,c
  1054  0013A6  5006               	movf	___ftge@ff2+2,w,c
  1055  0013A8  5803               	subwfb	___ftge@ff1+2,w,c
  1056  0013AA  B0D8               	btfsc	status,0,c
  1057  0013AC  D002               	goto	l1371
  1058  0013AE  90D8               	bcf	status,0,c
  1059  0013B0  D002               	goto	l609
  1060  0013B2                     l1371:
  1061  0013B2  80D8               	bsf	status,0,c
  1062  0013B4  D000               	goto	l609
  1063  0013B6                     l609:
  1064  0013B6  0012               	return		;funcret
  1065  0013B8                     __end_of___ftge:
  1066                           	opt stack 0
  1067                           tblptru	equ	0xFF8
  1068                           status	equ	0xFD8
  1069                           
  1070 ;; *************** function _Night_Mode *****************
  1071 ;; Defined at:
  1072 ;;		line 213 in file "lab6p1.c"
  1073 ;; Parameters:    Size  Location     Type
  1074 ;;		None
  1075 ;; Auto vars:     Size  Location     Type
  1076 ;;		None
  1077 ;; Return value:  Size  Location     Type
  1078 ;;		None               void
  1079 ;; Registers used:
  1080 ;;		wreg, status,2, status,0, cstack
  1081 ;; Tracked objects:
  1082 ;;		On entry : 0/0
  1083 ;;		On exit  : 0/0
  1084 ;;		Unchanged: 0/0
  1085 ;; Data sizes:     COMRAM   BANK0   BANK1   BANK2   BANK3   BANK4   BANK5   BANK6   BANK7   BANK8   BANK9  BANK10  BANK1
      +1  BANK12  BANK13  BANK14  BANK15
  1086 ;;      Params:         0       0       0       0       0       0       0       0       0       0       0       0       
      +0       0       0       0       0
  1087 ;;      Locals:         0       0       0       0       0       0       0       0       0       0       0       0       
      +0       0       0       0       0
  1088 ;;      Temps:          0       0       0       0       0       0       0       0       0       0       0       0       
      +0       0       0       0       0
  1089 ;;      Totals:         0       0       0       0       0       0       0       0       0       0       0       0       
      +0       0       0       0       0
  1090 ;;Total ram usage:        0 bytes
  1091 ;; Hardware stack levels used:    1
  1092 ;; Hardware stack levels required when called:    3
  1093 ;; This function calls:
  1094 ;;		_Wait_N_Seconds
  1095 ;;		_set_EW
  1096 ;;		_set_EWLT
  1097 ;;		_set_NS
  1098 ;;		_set_NSLT
  1099 ;; This function is called by:
  1100 ;;		_main
  1101 ;; This function uses a non-reentrant model
  1102 ;;
  1103                           
  1104                           	psect	text8
  1105  001282                     __ptext8:
  1106                           	opt stack 0
  1107  001282                     _Night_Mode:
  1108                           	opt stack 27
  1109                           
  1110                           ;lab6p1.c: 216: PORTB = 0;
  1111                           
  1112                           ;incstack = 0
  1113  001282  0E00               	movlw	0
  1114  001284  6E81               	movwf	3969,c	;volatile
  1115                           
  1116                           ;lab6p1.c: 217: PORTD = 0;
  1117  001286  0E00               	movlw	0
  1118  001288  6E83               	movwf	3971,c	;volatile
  1119                           
  1120                           ;lab6p1.c: 218: PORTEbits.RE2 = 0;
  1121  00128A  9484               	bcf	3972,2,c	;volatile
  1122                           
  1123                           ;lab6p1.c: 221: set_EW(1);
  1124  00128C  0E01               	movlw	1
  1125  00128E  ECC6  F00A         	call	_set_EW
  1126                           
  1127                           ;lab6p1.c: 222: set_EWLT(1);
  1128  001292  0E01               	movlw	1
  1129  001294  ECAB  F00A         	call	_set_EWLT
  1130                           
  1131                           ;lab6p1.c: 223: set_NSLT(1);
  1132  001298  0E01               	movlw	1
  1133  00129A  EC75  F00A         	call	_set_NSLT
  1134                           
  1135                           ;lab6p1.c: 224: set_NS(2);
  1136  00129E  0E02               	movlw	2
  1137  0012A0  EC90  F00A         	call	_set_NS
  1138                           
  1139                           ;lab6p1.c: 227: Wait_N_Seconds(6);
  1140  0012A4  0E06               	movlw	6
  1141  0012A6  EC03  F00B         	call	_Wait_N_Seconds
  1142                           
  1143                           ;lab6p1.c: 230: set_NS(3);
  1144  0012AA  0E03               	movlw	3
  1145  0012AC  EC90  F00A         	call	_set_NS
  1146                           
  1147                           ;lab6p1.c: 231: Wait_N_Seconds(3);
  1148  0012B0  0E03               	movlw	3
  1149  0012B2  EC03  F00B         	call	_Wait_N_Seconds
  1150                           
  1151                           ;lab6p1.c: 234: set_NS(1);
  1152  0012B6  0E01               	movlw	1
  1153  0012B8  EC90  F00A         	call	_set_NS
  1154                           
  1155                           ;lab6p1.c: 237: if (PORTCbits.RC0 == 1)
  1156  0012BC  A082               	btfss	3970,0,c	;volatile
  1157  0012BE  D00F               	goto	l155
  1158                           
  1159                           ;lab6p1.c: 238: {
  1160                           ;lab6p1.c: 240: set_EWLT(2);
  1161  0012C0  0E02               	movlw	2
  1162  0012C2  ECAB  F00A         	call	_set_EWLT
  1163                           
  1164                           ;lab6p1.c: 241: Wait_N_Seconds(7);
  1165  0012C6  0E07               	movlw	7
  1166  0012C8  EC03  F00B         	call	_Wait_N_Seconds
  1167                           
  1168                           ;lab6p1.c: 244: set_EWLT(3);
  1169  0012CC  0E03               	movlw	3
  1170  0012CE  ECAB  F00A         	call	_set_EWLT
  1171                           
  1172                           ;lab6p1.c: 245: Wait_N_Seconds(3);
  1173  0012D2  0E03               	movlw	3
  1174  0012D4  EC03  F00B         	call	_Wait_N_Seconds
  1175                           
  1176                           ;lab6p1.c: 248: set_EWLT(1);
  1177  0012D8  0E01               	movlw	1
  1178  0012DA  ECAB  F00A         	call	_set_EWLT
  1179  0012DE                     l155:
  1180                           
  1181                           ;lab6p1.c: 249: }
  1182                           ;lab6p1.c: 252: set_EW(2);
  1183  0012DE  0E02               	movlw	2
  1184  0012E0  ECC6  F00A         	call	_set_EW
  1185                           
  1186                           ;lab6p1.c: 253: Wait_N_Seconds(6);
  1187  0012E4  0E06               	movlw	6
  1188  0012E6  EC03  F00B         	call	_Wait_N_Seconds
  1189                           
  1190                           ;lab6p1.c: 256: set_EW(3);
  1191  0012EA  0E03               	movlw	3
  1192  0012EC  ECC6  F00A         	call	_set_EW
  1193                           
  1194                           ;lab6p1.c: 257: Wait_N_Seconds(3);
  1195  0012F0  0E03               	movlw	3
  1196  0012F2  EC03  F00B         	call	_Wait_N_Seconds
  1197                           
  1198                           ;lab6p1.c: 260: set_EW(1);
  1199  0012F6  0E01               	movlw	1
  1200  0012F8  ECC6  F00A         	call	_set_EW
  1201                           
  1202                           ;lab6p1.c: 263: if (PORTAbits.RA5 == 1)
  1203  0012FC  AA80               	btfss	3968,5,c	;volatile
  1204  0012FE  D010               	goto	l157
  1205                           
  1206                           ;lab6p1.c: 264: {
  1207                           ;lab6p1.c: 266: set_NSLT(2);
  1208  001300  0E02               	movlw	2
  1209  001302  EC75  F00A         	call	_set_NSLT
  1210                           
  1211                           ;lab6p1.c: 267: Wait_N_Seconds(8);
  1212  001306  0E08               	movlw	8
  1213  001308  EC03  F00B         	call	_Wait_N_Seconds
  1214                           
  1215                           ;lab6p1.c: 270: set_NSLT(3);
  1216  00130C  0E03               	movlw	3
  1217  00130E  EC75  F00A         	call	_set_NSLT
  1218                           
  1219                           ;lab6p1.c: 271: Wait_N_Seconds(3);
  1220  001312  0E03               	movlw	3
  1221  001314  EC03  F00B         	call	_Wait_N_Seconds
  1222                           
  1223                           ;lab6p1.c: 274: set_NSLT(1);
  1224  001318  0E01               	movlw	1
  1225  00131A  EC75  F00A         	call	_set_NSLT
  1226  00131E  D000               	goto	l157
  1227  001320                     l157:
  1228  001320  0012               	return		;funcret
  1229  001322                     __end_of_Night_Mode:
  1230                           	opt stack 0
  1231                           tblptru	equ	0xFF8
  1232                           status	equ	0xFD8
  1233                           
  1234 ;; *************** function _Init_TRIS *****************
  1235 ;; Defined at:
  1236 ;;		line 371 in file "lab6p1.c"
  1237 ;; Parameters:    Size  Location     Type
  1238 ;;		None
  1239 ;; Auto vars:     Size  Location     Type
  1240 ;;		None
  1241 ;; Return value:  Size  Location     Type
  1242 ;;		None               void
  1243 ;; Registers used:
  1244 ;;		wreg, status,2
  1245 ;; Tracked objects:
  1246 ;;		On entry : 0/0
  1247 ;;		On exit  : 0/0
  1248 ;;		Unchanged: 0/0
  1249 ;; Data sizes:     COMRAM   BANK0   BANK1   BANK2   BANK3   BANK4   BANK5   BANK6   BANK7   BANK8   BANK9  BANK10  BANK1
      +1  BANK12  BANK13  BANK14  BANK15
  1250 ;;      Params:         0       0       0       0       0       0       0       0       0       0       0       0       
      +0       0       0       0       0
  1251 ;;      Locals:         0       0       0       0       0       0       0       0       0       0       0       0       
      +0       0       0       0       0
  1252 ;;      Temps:          0       0       0       0       0       0       0       0       0       0       0       0       
      +0       0       0       0       0
  1253 ;;      Totals:         0       0       0       0       0       0       0       0       0       0       0       0       
      +0       0       0       0       0
  1254 ;;Total ram usage:        0 bytes
  1255 ;; Hardware stack levels used:    1
  1256 ;; This function calls:
  1257 ;;		Nothing
  1258 ;; This function is called by:
  1259 ;;		_main
  1260 ;; This function uses a non-reentrant model
  1261 ;;
  1262                           
  1263                           	psect	text9
  1264  0016AA                     __ptext9:
  1265                           	opt stack 0
  1266  0016AA                     _Init_TRIS:
  1267                           	opt stack 30
  1268                           
  1269                           ;lab6p1.c: 372: TRISA = 0xFF;
  1270                           
  1271                           ;incstack = 0
  1272  0016AA  6892               	setf	3986,c	;volatile
  1273                           
  1274                           ;lab6p1.c: 373: TRISB = 0x00;
  1275  0016AC  0E00               	movlw	0
  1276  0016AE  6E93               	movwf	3987,c	;volatile
  1277                           
  1278                           ;lab6p1.c: 374: TRISD = 0x00;
  1279  0016B0  0E00               	movlw	0
  1280  0016B2  6E95               	movwf	3989,c	;volatile
  1281                           
  1282                           ;lab6p1.c: 375: TRISCbits.TRISC1 = 0;
  1283  0016B4  9294               	bcf	3988,1,c	;volatile
  1284  0016B6  0012               	return		;funcret
  1285  0016B8                     __end_of_Init_TRIS:
  1286                           	opt stack 0
  1287                           tblptru	equ	0xFF8
  1288                           status	equ	0xFD8
  1289                           
  1290 ;; *************** function _Init_ADC *****************
  1291 ;; Defined at:
  1292 ;;		line 361 in file "lab6p1.c"
  1293 ;; Parameters:    Size  Location     Type
  1294 ;;		None
  1295 ;; Auto vars:     Size  Location     Type
  1296 ;;		None
  1297 ;; Return value:  Size  Location     Type
  1298 ;;		None               void
  1299 ;; Registers used:
  1300 ;;		wreg, status,2
  1301 ;; Tracked objects:
  1302 ;;		On entry : 0/0
  1303 ;;		On exit  : 0/0
  1304 ;;		Unchanged: 0/0
  1305 ;; Data sizes:     COMRAM   BANK0   BANK1   BANK2   BANK3   BANK4   BANK5   BANK6   BANK7   BANK8   BANK9  BANK10  BANK1
      +1  BANK12  BANK13  BANK14  BANK15
  1306 ;;      Params:         0       0       0       0       0       0       0       0       0       0       0       0       
      +0       0       0       0       0
  1307 ;;      Locals:         0       0       0       0       0       0       0       0       0       0       0       0       
      +0       0       0       0       0
  1308 ;;      Temps:          0       0       0       0       0       0       0       0       0       0       0       0       
      +0       0       0       0       0
  1309 ;;      Totals:         0       0       0       0       0       0       0       0       0       0       0       0       
      +0       0       0       0       0
  1310 ;;Total ram usage:        0 bytes
  1311 ;; Hardware stack levels used:    1
  1312 ;; This function calls:
  1313 ;;		Nothing
  1314 ;; This function is called by:
  1315 ;;		_main
  1316 ;; This function uses a non-reentrant model
  1317 ;;
  1318                           
  1319                           	psect	text10
  1320  0016B8                     __ptext10:
  1321                           	opt stack 0
  1322  0016B8                     _Init_ADC:
  1323                           	opt stack 30
  1324                           
  1325                           ;lab6p1.c: 362: ADCON0 = 0x01;
  1326                           
  1327                           ;incstack = 0
  1328  0016B8  0E01               	movlw	1
  1329  0016BA  6EC2               	movwf	4034,c	;volatile
  1330                           
  1331                           ;lab6p1.c: 363: ADCON1 = 0x0E;
  1332  0016BC  0E0E               	movlw	14
  1333  0016BE  6EC1               	movwf	4033,c	;volatile
  1334                           
  1335                           ;lab6p1.c: 364: ADCON2 = 0xA9;
  1336  0016C0  0EA9               	movlw	169
  1337  0016C2  6EC0               	movwf	4032,c	;volatile
  1338  0016C4  0012               	return		;funcret
  1339  0016C6                     __end_of_Init_ADC:
  1340                           	opt stack 0
  1341                           tblptru	equ	0xFF8
  1342                           status	equ	0xFD8
  1343                           
  1344 ;; *************** function _Day_Mode *****************
  1345 ;; Defined at:
  1346 ;;		line 281 in file "lab6p1.c"
  1347 ;; Parameters:    Size  Location     Type
  1348 ;;		None
  1349 ;; Auto vars:     Size  Location     Type
  1350 ;;		None
  1351 ;; Return value:  Size  Location     Type
  1352 ;;		None               void
  1353 ;; Registers used:
  1354 ;;		wreg, status,2, status,0, tblptrl, tblptrh, tblptru, prodl, prodh, cstack
  1355 ;; Tracked objects:
  1356 ;;		On entry : 0/0
  1357 ;;		On exit  : 0/0
  1358 ;;		Unchanged: 0/0
  1359 ;; Data sizes:     COMRAM   BANK0   BANK1   BANK2   BANK3   BANK4   BANK5   BANK6   BANK7   BANK8   BANK9  BANK10  BANK1
      +1  BANK12  BANK13  BANK14  BANK15
  1360 ;;      Params:         0       0       0       0       0       0       0       0       0       0       0       0       
      +0       0       0       0       0
  1361 ;;      Locals:         0       0       0       0       0       0       0       0       0       0       0       0       
      +0       0       0       0       0
  1362 ;;      Temps:          0       0       0       0       0       0       0       0       0       0       0       0       
      +0       0       0       0       0
  1363 ;;      Totals:         0       0       0       0       0       0       0       0       0       0       0       0       
      +0       0       0       0       0
  1364 ;;Total ram usage:        0 bytes
  1365 ;; Hardware stack levels used:    1
  1366 ;; Hardware stack levels required when called:    3
  1367 ;; This function calls:
  1368 ;;		_PED_Control
  1369 ;;		_Wait_N_Seconds
  1370 ;;		_set_EW
  1371 ;;		_set_EWLT
  1372 ;;		_set_NS
  1373 ;;		_set_NSLT
  1374 ;; This function is called by:
  1375 ;;		_main
  1376 ;; This function uses a non-reentrant model
  1377 ;;
  1378                           
  1379                           	psect	text11
  1380  0011CA                     __ptext11:
  1381                           	opt stack 0
  1382  0011CA                     _Day_Mode:
  1383                           	opt stack 27
  1384                           
  1385                           ;lab6p1.c: 284: PORTEbits.RE2 = 1;
  1386                           
  1387                           ;incstack = 0
  1388  0011CA  8484               	bsf	3972,2,c	;volatile
  1389                           
  1390                           ;lab6p1.c: 285: set_EW(1);
  1391  0011CC  0E01               	movlw	1
  1392  0011CE  ECC6  F00A         	call	_set_EW
  1393                           
  1394                           ;lab6p1.c: 286: set_EWLT(1);
  1395  0011D2  0E01               	movlw	1
  1396  0011D4  ECAB  F00A         	call	_set_EWLT
  1397                           
  1398                           ;lab6p1.c: 287: set_NSLT(1);
  1399  0011D8  0E01               	movlw	1
  1400  0011DA  EC75  F00A         	call	_set_NSLT
  1401                           
  1402                           ;lab6p1.c: 288: set_NS(2);
  1403  0011DE  0E02               	movlw	2
  1404  0011E0  EC90  F00A         	call	_set_NS
  1405                           
  1406                           ;lab6p1.c: 291: if (PORTAbits.RA3 == 1)
  1407  0011E4  A680               	btfss	3968,3,c	;volatile
  1408  0011E6  D006               	goto	l1275
  1409                           
  1410                           ;lab6p1.c: 292: {
  1411                           ;lab6p1.c: 293: PED_Control(0, 8);
  1412  0011E8  0E08               	movlw	8
  1413  0011EA  6E02               	movwf	PED_Control@Num_Sec,c
  1414  0011EC  0E00               	movlw	0
  1415  0011EE  EC53  F00A         	call	_PED_Control
  1416  0011F2  D000               	goto	l1275
  1417  0011F4                     l1275:
  1418                           
  1419                           ;lab6p1.c: 294: }
  1420                           ;lab6p1.c: 297: Wait_N_Seconds(7);
  1421  0011F4  0E07               	movlw	7
  1422  0011F6  EC03  F00B         	call	_Wait_N_Seconds
  1423                           
  1424                           ;lab6p1.c: 300: set_NS(3);
  1425  0011FA  0E03               	movlw	3
  1426  0011FC  EC90  F00A         	call	_set_NS
  1427                           
  1428                           ;lab6p1.c: 301: Wait_N_Seconds(3);
  1429  001200  0E03               	movlw	3
  1430  001202  EC03  F00B         	call	_Wait_N_Seconds
  1431                           
  1432                           ;lab6p1.c: 304: set_NS(1);
  1433  001206  0E01               	movlw	1
  1434  001208  EC90  F00A         	call	_set_NS
  1435                           
  1436                           ;lab6p1.c: 307: if (PORTCbits.RC0 == 1)
  1437  00120C  A082               	btfss	3970,0,c	;volatile
  1438  00120E  D00F               	goto	l161
  1439                           
  1440                           ;lab6p1.c: 308: {
  1441                           ;lab6p1.c: 310: set_EWLT(2);
  1442  001210  0E02               	movlw	2
  1443  001212  ECAB  F00A         	call	_set_EWLT
  1444                           
  1445                           ;lab6p1.c: 311: Wait_N_Seconds(8);
  1446  001216  0E08               	movlw	8
  1447  001218  EC03  F00B         	call	_Wait_N_Seconds
  1448                           
  1449                           ;lab6p1.c: 314: set_EWLT(3);
  1450  00121C  0E03               	movlw	3
  1451  00121E  ECAB  F00A         	call	_set_EWLT
  1452                           
  1453                           ;lab6p1.c: 315: Wait_N_Seconds(3);
  1454  001222  0E03               	movlw	3
  1455  001224  EC03  F00B         	call	_Wait_N_Seconds
  1456                           
  1457                           ;lab6p1.c: 318: set_EWLT(1);
  1458  001228  0E01               	movlw	1
  1459  00122A  ECAB  F00A         	call	_set_EWLT
  1460  00122E                     l161:
  1461                           
  1462                           ;lab6p1.c: 319: }
  1463                           ;lab6p1.c: 322: set_EW(2);
  1464  00122E  0E02               	movlw	2
  1465  001230  ECC6  F00A         	call	_set_EW
  1466                           
  1467                           ;lab6p1.c: 325: if (PORTAbits.RA4 == 1)
  1468  001234  A880               	btfss	3968,4,c	;volatile
  1469  001236  D006               	goto	l1291
  1470                           
  1471                           ;lab6p1.c: 326: {
  1472                           ;lab6p1.c: 327: PED_Control(1, 8);
  1473  001238  0E08               	movlw	8
  1474  00123A  6E02               	movwf	PED_Control@Num_Sec,c
  1475  00123C  0E01               	movlw	1
  1476  00123E  EC53  F00A         	call	_PED_Control
  1477  001242  D000               	goto	l1291
  1478  001244                     l1291:
  1479                           
  1480                           ;lab6p1.c: 328: }
  1481                           ;lab6p1.c: 331: Wait_N_Seconds(6);
  1482  001244  0E06               	movlw	6
  1483  001246  EC03  F00B         	call	_Wait_N_Seconds
  1484                           
  1485                           ;lab6p1.c: 334: set_EW(3);
  1486  00124A  0E03               	movlw	3
  1487  00124C  ECC6  F00A         	call	_set_EW
  1488                           
  1489                           ;lab6p1.c: 335: Wait_N_Seconds(3);
  1490  001250  0E03               	movlw	3
  1491  001252  EC03  F00B         	call	_Wait_N_Seconds
  1492                           
  1493                           ;lab6p1.c: 338: set_EW(1);
  1494  001256  0E01               	movlw	1
  1495  001258  ECC6  F00A         	call	_set_EW
  1496                           
  1497                           ;lab6p1.c: 341: if (PORTAbits.RA5 == 1)
  1498  00125C  AA80               	btfss	3968,5,c	;volatile
  1499  00125E  D010               	goto	l164
  1500                           
  1501                           ;lab6p1.c: 342: {
  1502                           ;lab6p1.c: 344: set_NSLT(2);
  1503  001260  0E02               	movlw	2
  1504  001262  EC75  F00A         	call	_set_NSLT
  1505                           
  1506                           ;lab6p1.c: 345: Wait_N_Seconds(7);
  1507  001266  0E07               	movlw	7
  1508  001268  EC03  F00B         	call	_Wait_N_Seconds
  1509                           
  1510                           ;lab6p1.c: 348: set_NSLT(3);
  1511  00126C  0E03               	movlw	3
  1512  00126E  EC75  F00A         	call	_set_NSLT
  1513                           
  1514                           ;lab6p1.c: 349: Wait_N_Seconds(3);
  1515  001272  0E03               	movlw	3
  1516  001274  EC03  F00B         	call	_Wait_N_Seconds
  1517                           
  1518                           ;lab6p1.c: 352: set_NSLT(1);
  1519  001278  0E01               	movlw	1
  1520  00127A  EC75  F00A         	call	_set_NSLT
  1521  00127E  D000               	goto	l164
  1522  001280                     l164:
  1523  001280  0012               	return		;funcret
  1524  001282                     __end_of_Day_Mode:
  1525                           	opt stack 0
  1526                           tblptru	equ	0xFF8
  1527                           status	equ	0xFD8
  1528                           
  1529 ;; *************** function _set_NSLT *****************
  1530 ;; Defined at:
  1531 ;;		line 131 in file "lab6p1.c"
  1532 ;; Parameters:    Size  Location     Type
  1533 ;;  color           1    wreg     unsigned char 
  1534 ;; Auto vars:     Size  Location     Type
  1535 ;;  color           1    0[COMRAM] unsigned char 
  1536 ;; Return value:  Size  Location     Type
  1537 ;;		None               void
  1538 ;; Registers used:
  1539 ;;		wreg, status,2, status,0
  1540 ;; Tracked objects:
  1541 ;;		On entry : 0/0
  1542 ;;		On exit  : 0/0
  1543 ;;		Unchanged: 0/0
  1544 ;; Data sizes:     COMRAM   BANK0   BANK1   BANK2   BANK3   BANK4   BANK5   BANK6   BANK7   BANK8   BANK9  BANK10  BANK1
      +1  BANK12  BANK13  BANK14  BANK15
  1545 ;;      Params:         0       0       0       0       0       0       0       0       0       0       0       0       
      +0       0       0       0       0
  1546 ;;      Locals:         1       0       0       0       0       0       0       0       0       0       0       0       
      +0       0       0       0       0
  1547 ;;      Temps:          0       0       0       0       0       0       0       0       0       0       0       0       
      +0       0       0       0       0
  1548 ;;      Totals:         1       0       0       0       0       0       0       0       0       0       0       0       
      +0       0       0       0       0
  1549 ;;Total ram usage:        1 bytes
  1550 ;; Hardware stack levels used:    1
  1551 ;; This function calls:
  1552 ;;		Nothing
  1553 ;; This function is called by:
  1554 ;;		_Night_Mode
  1555 ;;		_Day_Mode
  1556 ;; This function uses a non-reentrant model
  1557 ;;
  1558                           
  1559                           	psect	text12
  1560  0014EA                     __ptext12:
  1561                           	opt stack 0
  1562  0014EA                     _set_NSLT:
  1563                           	opt stack 29
  1564                           
  1565                           ;incstack = 0
  1566                           ;set_NSLT@color stored from wreg
  1567  0014EA  6E01               	movwf	set_NSLT@color,c
  1568                           
  1569                           ;lab6p1.c: 133: switch(color)
  1570  0014EC  D00A               	goto	l911
  1571  0014EE                     l109:
  1572  0014EE  9482               	bcf	3970,2,c	;volatile
  1573  0014F0  D001               	goto	L1
  1574  0014F2                     l111:
  1575  0014F2  8482               	bsf	3970,2,c	;volatile
  1576  0014F4                     L1:
  1577  0014F4  9682               	bcf	3970,3,c	;volatile
  1578  0014F6  D013               	goto	l114
  1579  0014F8                     l112:
  1580  0014F8  9482               	bcf	3970,2,c	;volatile
  1581  0014FA  D001               	goto	L2
  1582  0014FC                     l113:
  1583  0014FC  8482               	bsf	3970,2,c	;volatile
  1584  0014FE                     L2:
  1585  0014FE  8682               	bsf	3970,3,c	;volatile
  1586                           
  1587                           ;lab6p1.c: 139: }
  1588  001500  D00E               	goto	l114
  1589  001502                     l911:
  1590  001502  5001               	movf	set_NSLT@color,w,c
  1591                           
  1592                           ; Switch size 1, requested type "space"
  1593                           ; Number of cases is 4, Range of values is 0 to 3
  1594                           ; switch strategies available:
  1595                           ; Name         Instructions Cycles
  1596                           ; simple_byte           13     7 (average)
  1597                           ;	Chosen strategy is simple_byte
  1598  001504  0A00               	xorlw	0	; case 0
  1599  001506  B4D8               	btfsc	status,2,c
  1600  001508  D7F2               	goto	l109
  1601  00150A  0A01               	xorlw	1	; case 1
  1602  00150C  B4D8               	btfsc	status,2,c
  1603  00150E  D7F1               	goto	l111
  1604  001510  0A03               	xorlw	3	; case 2
  1605  001512  B4D8               	btfsc	status,2,c
  1606  001514  D7F1               	goto	l112
  1607  001516  0A01               	xorlw	1	; case 3
  1608  001518  B4D8               	btfsc	status,2,c
  1609  00151A  D7F0               	goto	l113
  1610  00151C  D000               	goto	l114
  1611  00151E                     l114:
  1612  00151E  0012               	return		;funcret
  1613  001520                     __end_of_set_NSLT:
  1614                           	opt stack 0
  1615                           tblptru	equ	0xFF8
  1616                           status	equ	0xFD8
  1617                           
  1618 ;; *************** function _set_NS *****************
  1619 ;; Defined at:
  1620 ;;		line 120 in file "lab6p1.c"
  1621 ;; Parameters:    Size  Location     Type
  1622 ;;  color           1    wreg     unsigned char 
  1623 ;; Auto vars:     Size  Location     Type
  1624 ;;  color           1    0[COMRAM] unsigned char 
  1625 ;; Return value:  Size  Location     Type
  1626 ;;		None               void
  1627 ;; Registers used:
  1628 ;;		wreg, status,2, status,0
  1629 ;; Tracked objects:
  1630 ;;		On entry : 0/0
  1631 ;;		On exit  : 0/0
  1632 ;;		Unchanged: 0/0
  1633 ;; Data sizes:     COMRAM   BANK0   BANK1   BANK2   BANK3   BANK4   BANK5   BANK6   BANK7   BANK8   BANK9  BANK10  BANK1
      +1  BANK12  BANK13  BANK14  BANK15
  1634 ;;      Params:         0       0       0       0       0       0       0       0       0       0       0       0       
      +0       0       0       0       0
  1635 ;;      Locals:         1       0       0       0       0       0       0       0       0       0       0       0       
      +0       0       0       0       0
  1636 ;;      Temps:          0       0       0       0       0       0       0       0       0       0       0       0       
      +0       0       0       0       0
  1637 ;;      Totals:         1       0       0       0       0       0       0       0       0       0       0       0       
      +0       0       0       0       0
  1638 ;;Total ram usage:        1 bytes
  1639 ;; Hardware stack levels used:    1
  1640 ;; This function calls:
  1641 ;;		Nothing
  1642 ;; This function is called by:
  1643 ;;		_Night_Mode
  1644 ;;		_Day_Mode
  1645 ;; This function uses a non-reentrant model
  1646 ;;
  1647                           
  1648                           	psect	text13
  1649  001520                     __ptext13:
  1650                           	opt stack 0
  1651  001520                     _set_NS:
  1652                           	opt stack 29
  1653                           
  1654                           ;incstack = 0
  1655                           ;set_NS@color stored from wreg
  1656  001520  6E01               	movwf	set_NS@color,c
  1657                           
  1658                           ;lab6p1.c: 122: switch (color)
  1659  001522  D00A               	goto	l905
  1660  001524                     l100:
  1661  001524  9280               	bcf	3968,1,c	;volatile
  1662  001526  D001               	goto	L3
  1663  001528                     l102:
  1664  001528  8280               	bsf	3968,1,c	;volatile
  1665  00152A                     L3:
  1666  00152A  9480               	bcf	3968,2,c	;volatile
  1667  00152C  D013               	goto	l105
  1668  00152E                     l103:
  1669  00152E  9280               	bcf	3968,1,c	;volatile
  1670  001530  D001               	goto	L4
  1671  001532                     l104:
  1672  001532  8280               	bsf	3968,1,c	;volatile
  1673  001534                     L4:
  1674  001534  8480               	bsf	3968,2,c	;volatile
  1675                           
  1676                           ;lab6p1.c: 128: }
  1677  001536  D00E               	goto	l105
  1678  001538                     l905:
  1679  001538  5001               	movf	set_NS@color,w,c
  1680                           
  1681                           ; Switch size 1, requested type "space"
  1682                           ; Number of cases is 4, Range of values is 0 to 3
  1683                           ; switch strategies available:
  1684                           ; Name         Instructions Cycles
  1685                           ; simple_byte           13     7 (average)
  1686                           ;	Chosen strategy is simple_byte
  1687  00153A  0A00               	xorlw	0	; case 0
  1688  00153C  B4D8               	btfsc	status,2,c
  1689  00153E  D7F2               	goto	l100
  1690  001540  0A01               	xorlw	1	; case 1
  1691  001542  B4D8               	btfsc	status,2,c
  1692  001544  D7F1               	goto	l102
  1693  001546  0A03               	xorlw	3	; case 2
  1694  001548  B4D8               	btfsc	status,2,c
  1695  00154A  D7F1               	goto	l103
  1696  00154C  0A01               	xorlw	1	; case 3
  1697  00154E  B4D8               	btfsc	status,2,c
  1698  001550  D7F0               	goto	l104
  1699  001552  D000               	goto	l105
  1700  001554                     l105:
  1701  001554  0012               	return		;funcret
  1702  001556                     __end_of_set_NS:
  1703                           	opt stack 0
  1704                           tblptru	equ	0xFF8
  1705                           status	equ	0xFD8
  1706                           
  1707 ;; *************** function _set_EWLT *****************
  1708 ;; Defined at:
  1709 ;;		line 153 in file "lab6p1.c"
  1710 ;; Parameters:    Size  Location     Type
  1711 ;;  color           1    wreg     unsigned char 
  1712 ;; Auto vars:     Size  Location     Type
  1713 ;;  color           1    0[COMRAM] unsigned char 
  1714 ;; Return value:  Size  Location     Type
  1715 ;;		None               void
  1716 ;; Registers used:
  1717 ;;		wreg, status,2, status,0
  1718 ;; Tracked objects:
  1719 ;;		On entry : 0/0
  1720 ;;		On exit  : 0/0
  1721 ;;		Unchanged: 0/0
  1722 ;; Data sizes:     COMRAM   BANK0   BANK1   BANK2   BANK3   BANK4   BANK5   BANK6   BANK7   BANK8   BANK9  BANK10  BANK1
      +1  BANK12  BANK13  BANK14  BANK15
  1723 ;;      Params:         0       0       0       0       0       0       0       0       0       0       0       0       
      +0       0       0       0       0
  1724 ;;      Locals:         1       0       0       0       0       0       0       0       0       0       0       0       
      +0       0       0       0       0
  1725 ;;      Temps:          0       0       0       0       0       0       0       0       0       0       0       0       
      +0       0       0       0       0
  1726 ;;      Totals:         1       0       0       0       0       0       0       0       0       0       0       0       
      +0       0       0       0       0
  1727 ;;Total ram usage:        1 bytes
  1728 ;; Hardware stack levels used:    1
  1729 ;; This function calls:
  1730 ;;		Nothing
  1731 ;; This function is called by:
  1732 ;;		_Night_Mode
  1733 ;;		_Day_Mode
  1734 ;; This function uses a non-reentrant model
  1735 ;;
  1736                           
  1737                           	psect	text14
  1738  001556                     __ptext14:
  1739                           	opt stack 0
  1740  001556                     _set_EWLT:
  1741                           	opt stack 29
  1742                           
  1743                           ;incstack = 0
  1744                           ;set_EWLT@color stored from wreg
  1745  001556  6E01               	movwf	set_EWLT@color,c
  1746                           
  1747                           ;lab6p1.c: 155: switch(color)
  1748  001558  D00A               	goto	l923
  1749  00155A                     l127:
  1750  00155A  9E81               	bcf	3969,7,c	;volatile
  1751  00155C  D001               	goto	L5
  1752  00155E                     l129:
  1753  00155E  8E81               	bsf	3969,7,c	;volatile
  1754  001560                     L5:
  1755  001560  9084               	bcf	3972,0,c	;volatile
  1756  001562  D013               	goto	l132
  1757  001564                     l130:
  1758  001564  9E81               	bcf	3969,7,c	;volatile
  1759  001566  D001               	goto	L6
  1760  001568                     l131:
  1761  001568  8E81               	bsf	3969,7,c	;volatile
  1762  00156A                     L6:
  1763  00156A  8084               	bsf	3972,0,c	;volatile
  1764                           
  1765                           ;lab6p1.c: 161: }
  1766  00156C  D00E               	goto	l132
  1767  00156E                     l923:
  1768  00156E  5001               	movf	set_EWLT@color,w,c
  1769                           
  1770                           ; Switch size 1, requested type "space"
  1771                           ; Number of cases is 4, Range of values is 0 to 3
  1772                           ; switch strategies available:
  1773                           ; Name         Instructions Cycles
  1774                           ; simple_byte           13     7 (average)
  1775                           ;	Chosen strategy is simple_byte
  1776  001570  0A00               	xorlw	0	; case 0
  1777  001572  B4D8               	btfsc	status,2,c
  1778  001574  D7F2               	goto	l127
  1779  001576  0A01               	xorlw	1	; case 1
  1780  001578  B4D8               	btfsc	status,2,c
  1781  00157A  D7F1               	goto	l129
  1782  00157C  0A03               	xorlw	3	; case 2
  1783  00157E  B4D8               	btfsc	status,2,c
  1784  001580  D7F1               	goto	l130
  1785  001582  0A01               	xorlw	1	; case 3
  1786  001584  B4D8               	btfsc	status,2,c
  1787  001586  D7F0               	goto	l131
  1788  001588  D000               	goto	l132
  1789  00158A                     l132:
  1790  00158A  0012               	return		;funcret
  1791  00158C                     __end_of_set_EWLT:
  1792                           	opt stack 0
  1793                           tblptru	equ	0xFF8
  1794                           status	equ	0xFD8
  1795                           
  1796 ;; *************** function _set_EW *****************
  1797 ;; Defined at:
  1798 ;;		line 142 in file "lab6p1.c"
  1799 ;; Parameters:    Size  Location     Type
  1800 ;;  color           1    wreg     unsigned char 
  1801 ;; Auto vars:     Size  Location     Type
  1802 ;;  color           1    0[COMRAM] unsigned char 
  1803 ;; Return value:  Size  Location     Type
  1804 ;;		None               void
  1805 ;; Registers used:
  1806 ;;		wreg, status,2, status,0
  1807 ;; Tracked objects:
  1808 ;;		On entry : 0/0
  1809 ;;		On exit  : 0/0
  1810 ;;		Unchanged: 0/0
  1811 ;; Data sizes:     COMRAM   BANK0   BANK1   BANK2   BANK3   BANK4   BANK5   BANK6   BANK7   BANK8   BANK9  BANK10  BANK1
      +1  BANK12  BANK13  BANK14  BANK15
  1812 ;;      Params:         0       0       0       0       0       0       0       0       0       0       0       0       
      +0       0       0       0       0
  1813 ;;      Locals:         1       0       0       0       0       0       0       0       0       0       0       0       
      +0       0       0       0       0
  1814 ;;      Temps:          0       0       0       0       0       0       0       0       0       0       0       0       
      +0       0       0       0       0
  1815 ;;      Totals:         1       0       0       0       0       0       0       0       0       0       0       0       
      +0       0       0       0       0
  1816 ;;Total ram usage:        1 bytes
  1817 ;; Hardware stack levels used:    1
  1818 ;; This function calls:
  1819 ;;		Nothing
  1820 ;; This function is called by:
  1821 ;;		_Night_Mode
  1822 ;;		_Day_Mode
  1823 ;; This function uses a non-reentrant model
  1824 ;;
  1825                           
  1826                           	psect	text15
  1827  00158C                     __ptext15:
  1828                           	opt stack 0
  1829  00158C                     _set_EW:
  1830                           	opt stack 29
  1831                           
  1832                           ;incstack = 0
  1833                           ;set_EW@color stored from wreg
  1834  00158C  6E01               	movwf	set_EW@color,c
  1835                           
  1836                           ;lab6p1.c: 144: switch(color)
  1837  00158E  D00A               	goto	l917
  1838  001590                     l118:
  1839  001590  9882               	bcf	3970,4,c	;volatile
  1840  001592  D001               	goto	L7
  1841  001594                     l120:
  1842  001594  8882               	bsf	3970,4,c	;volatile
  1843  001596                     L7:
  1844  001596  9A82               	bcf	3970,5,c	;volatile
  1845  001598  D013               	goto	l123
  1846  00159A                     l121:
  1847  00159A  9882               	bcf	3970,4,c	;volatile
  1848  00159C  D001               	goto	L8
  1849  00159E                     l122:
  1850  00159E  8882               	bsf	3970,4,c	;volatile
  1851  0015A0                     L8:
  1852  0015A0  8A82               	bsf	3970,5,c	;volatile
  1853                           
  1854                           ;lab6p1.c: 150: }
  1855  0015A2  D00E               	goto	l123
  1856  0015A4                     l917:
  1857  0015A4  5001               	movf	set_EW@color,w,c
  1858                           
  1859                           ; Switch size 1, requested type "space"
  1860                           ; Number of cases is 4, Range of values is 0 to 3
  1861                           ; switch strategies available:
  1862                           ; Name         Instructions Cycles
  1863                           ; simple_byte           13     7 (average)
  1864                           ;	Chosen strategy is simple_byte
  1865  0015A6  0A00               	xorlw	0	; case 0
  1866  0015A8  B4D8               	btfsc	status,2,c
  1867  0015AA  D7F2               	goto	l118
  1868  0015AC  0A01               	xorlw	1	; case 1
  1869  0015AE  B4D8               	btfsc	status,2,c
  1870  0015B0  D7F1               	goto	l120
  1871  0015B2  0A03               	xorlw	3	; case 2
  1872  0015B4  B4D8               	btfsc	status,2,c
  1873  0015B6  D7F1               	goto	l121
  1874  0015B8  0A01               	xorlw	1	; case 3
  1875  0015BA  B4D8               	btfsc	status,2,c
  1876  0015BC  D7F0               	goto	l122
  1877  0015BE  D000               	goto	l123
  1878  0015C0                     l123:
  1879  0015C0  0012               	return		;funcret
  1880  0015C2                     __end_of_set_EW:
  1881                           	opt stack 0
  1882                           tblptru	equ	0xFF8
  1883                           status	equ	0xFD8
  1884                           
  1885 ;; *************** function _Wait_N_Seconds *****************
  1886 ;; Defined at:
  1887 ;;		line 87 in file "lab6p1.c"
  1888 ;; Parameters:    Size  Location     Type
  1889 ;;  seconds         1    wreg     unsigned char 
  1890 ;; Auto vars:     Size  Location     Type
  1891 ;;  seconds         1    0[COMRAM] unsigned char 
  1892 ;;  I               1    1[COMRAM] unsigned char 
  1893 ;; Return value:  Size  Location     Type
  1894 ;;		None               void
  1895 ;; Registers used:
  1896 ;;		wreg, status,2, status,0, cstack
  1897 ;; Tracked objects:
  1898 ;;		On entry : 0/0
  1899 ;;		On exit  : 0/0
  1900 ;;		Unchanged: 0/0
  1901 ;; Data sizes:     COMRAM   BANK0   BANK1   BANK2   BANK3   BANK4   BANK5   BANK6   BANK7   BANK8   BANK9  BANK10  BANK1
      +1  BANK12  BANK13  BANK14  BANK15
  1902 ;;      Params:         0       0       0       0       0       0       0       0       0       0       0       0       
      +0       0       0       0       0
  1903 ;;      Locals:         2       0       0       0       0       0       0       0       0       0       0       0       
      +0       0       0       0       0
  1904 ;;      Temps:          0       0       0       0       0       0       0       0       0       0       0       0       
      +0       0       0       0       0
  1905 ;;      Totals:         2       0       0       0       0       0       0       0       0       0       0       0       
      +0       0       0       0       0
  1906 ;;Total ram usage:        2 bytes
  1907 ;; Hardware stack levels used:    1
  1908 ;; Hardware stack levels required when called:    2
  1909 ;; This function calls:
  1910 ;;		_Wait_One_Second
  1911 ;; This function is called by:
  1912 ;;		_Night_Mode
  1913 ;;		_Day_Mode
  1914 ;; This function uses a non-reentrant model
  1915 ;;
  1916                           
  1917                           	psect	text16
  1918  001606                     __ptext16:
  1919                           	opt stack 0
  1920  001606                     _Wait_N_Seconds:
  1921                           	opt stack 27
  1922                           
  1923                           ;incstack = 0
  1924                           ;Wait_N_Seconds@seconds stored from wreg
  1925  001606  6E01               	movwf	Wait_N_Seconds@seconds,c
  1926                           
  1927                           ;lab6p1.c: 89: char I;
  1928                           ;lab6p1.c: 90: for (I = 0; I< seconds; I++)
  1929  001608  0E00               	movlw	0
  1930  00160A  6E02               	movwf	Wait_N_Seconds@I,c
  1931  00160C  D004               	goto	l899
  1932  00160E                     l895:
  1933                           
  1934                           ;lab6p1.c: 91: {
  1935                           ;lab6p1.c: 92: Wait_One_Second ();
  1936  00160E  EC63  F00B         	call	_Wait_One_Second	;wreg free
  1937  001612  2A02               	incf	Wait_N_Seconds@I,f,c
  1938  001614  D000               	goto	l899
  1939  001616                     l899:
  1940  001616  5001               	movf	Wait_N_Seconds@seconds,w,c
  1941  001618  5C02               	subwf	Wait_N_Seconds@I,w,c
  1942  00161A  A0D8               	btfss	status,0,c
  1943  00161C  D7F8               	goto	l895
  1944  00161E  0012               	return		;funcret
  1945  001620                     __end_of_Wait_N_Seconds:
  1946                           	opt stack 0
  1947                           tblptru	equ	0xFF8
  1948                           status	equ	0xFD8
  1949                           
  1950 ;; *************** function _Wait_One_Second *****************
  1951 ;; Defined at:
  1952 ;;		line 69 in file "lab6p1.c"
  1953 ;; Parameters:    Size  Location     Type
  1954 ;;		None
  1955 ;; Auto vars:     Size  Location     Type
  1956 ;;		None
  1957 ;; Return value:  Size  Location     Type
  1958 ;;		None               void
  1959 ;; Registers used:
  1960 ;;		wreg, status,2, cstack
  1961 ;; Tracked objects:
  1962 ;;		On entry : 0/0
  1963 ;;		On exit  : 0/0
  1964 ;;		Unchanged: 0/0
  1965 ;; Data sizes:     COMRAM   BANK0   BANK1   BANK2   BANK3   BANK4   BANK5   BANK6   BANK7   BANK8   BANK9  BANK10  BANK1
      +1  BANK12  BANK13  BANK14  BANK15
  1966 ;;      Params:         0       0       0       0       0       0       0       0       0       0       0       0       
      +0       0       0       0       0
  1967 ;;      Locals:         0       0       0       0       0       0       0       0       0       0       0       0       
      +0       0       0       0       0
  1968 ;;      Temps:          0       0       0       0       0       0       0       0       0       0       0       0       
      +0       0       0       0       0
  1969 ;;      Totals:         0       0       0       0       0       0       0       0       0       0       0       0       
      +0       0       0       0       0
  1970 ;;Total ram usage:        0 bytes
  1971 ;; Hardware stack levels used:    1
  1972 ;; Hardware stack levels required when called:    1
  1973 ;; This function calls:
  1974 ;;		_Wait_Half_Second
  1975 ;; This function is called by:
  1976 ;;		_Wait_N_Seconds
  1977 ;; This function uses a non-reentrant model
  1978 ;;
  1979                           
  1980                           	psect	text17
  1981  0016C6                     __ptext17:
  1982                           	opt stack 0
  1983  0016C6                     _Wait_One_Second:
  1984                           	opt stack 27
  1985                           
  1986                           ;lab6p1.c: 71: PORTDbits.RD7 = 1;
  1987                           
  1988                           ;incstack = 0
  1989  0016C6  8E83               	bsf	3971,7,c	;volatile
  1990                           
  1991                           ;lab6p1.c: 72: Wait_Half_Second ();
  1992  0016C8  EC10  F00B         	call	_Wait_Half_Second	;wreg free
  1993                           
  1994                           ;lab6p1.c: 73: PORTDbits.RD7 = 0;
  1995  0016CC  9E83               	bcf	3971,7,c	;volatile
  1996                           
  1997                           ;lab6p1.c: 74: Wait_Half_Second ();
  1998  0016CE  EC10  F00B         	call	_Wait_Half_Second	;wreg free
  1999  0016D2  0012               	return		;funcret
  2000  0016D4                     __end_of_Wait_One_Second:
  2001                           	opt stack 0
  2002                           tblptru	equ	0xFF8
  2003                           status	equ	0xFD8
  2004                           
  2005 ;; *************** function _PED_Control *****************
  2006 ;; Defined at:
  2007 ;;		line 166 in file "lab6p1.c"
  2008 ;; Parameters:    Size  Location     Type
  2009 ;;  Direction       1    wreg     unsigned char 
  2010 ;;  Num_Sec         1    1[COMRAM] unsigned char 
  2011 ;; Auto vars:     Size  Location     Type
  2012 ;;  Direction       1    2[COMRAM] unsigned char 
  2013 ;; Return value:  Size  Location     Type
  2014 ;;		None               void
  2015 ;; Registers used:
  2016 ;;		wreg, status,2, status,0, tblptrl, tblptrh, tblptru, prodl, prodh, cstack
  2017 ;; Tracked objects:
  2018 ;;		On entry : 0/0
  2019 ;;		On exit  : 0/0
  2020 ;;		Unchanged: 0/0
  2021 ;; Data sizes:     COMRAM   BANK0   BANK1   BANK2   BANK3   BANK4   BANK5   BANK6   BANK7   BANK8   BANK9  BANK10  BANK1
      +1  BANK12  BANK13  BANK14  BANK15
  2022 ;;      Params:         1       0       0       0       0       0       0       0       0       0       0       0       
      +0       0       0       0       0
  2023 ;;      Locals:         1       0       0       0       0       0       0       0       0       0       0       0       
      +0       0       0       0       0
  2024 ;;      Temps:          0       0       0       0       0       0       0       0       0       0       0       0       
      +0       0       0       0       0
  2025 ;;      Totals:         2       0       0       0       0       0       0       0       0       0       0       0       
      +0       0       0       0       0
  2026 ;;Total ram usage:        2 bytes
  2027 ;; Hardware stack levels used:    1
  2028 ;; Hardware stack levels required when called:    2
  2029 ;; This function calls:
  2030 ;;		_Clear_Lower_Display
  2031 ;;		_Clear_Upper_Display
  2032 ;;		_Display_Lower
  2033 ;;		_Display_Upper
  2034 ;;		_Wait_One_Second_With_Beep
  2035 ;; This function is called by:
  2036 ;;		_Day_Mode
  2037 ;; This function uses a non-reentrant model
  2038 ;;
  2039                           
  2040                           	psect	text18
  2041  0014A6                     __ptext18:
  2042                           	opt stack 0
  2043  0014A6                     _PED_Control:
  2044                           	opt stack 27
  2045                           
  2046                           ;incstack = 0
  2047                           ;PED_Control@Direction stored from wreg
  2048  0014A6  6E03               	movwf	PED_Control@Direction,c
  2049                           
  2050                           ;lab6p1.c: 168: if(Direction == 0)
  2051  0014A8  5003               	movf	PED_Control@Direction,w,c
  2052  0014AA  B4D8               	btfsc	status,2,c
  2053  0014AC  D009               	goto	l1213
  2054  0014AE  D016               	goto	l1223
  2055                           
  2056                           ;lab6p1.c: 169: {
  2057                           ;lab6p1.c: 170: while(Num_Sec > 0)
  2058  0014B0  D007               	goto	l1213
  2059  0014B2                     l1207:
  2060                           
  2061                           ;lab6p1.c: 171: {
  2062                           ;lab6p1.c: 172: Display_Upper(Num_Sec - 1);
  2063  0014B2  0402               	decf	PED_Control@Num_Sec,w,c
  2064  0014B4  EC1D  F00B         	call	_Display_Upper
  2065                           
  2066                           ;lab6p1.c: 173: Wait_One_Second_With_Beep();
  2067  0014B8  EC37  F00B         	call	_Wait_One_Second_With_Beep	;wreg free
  2068                           
  2069                           ;lab6p1.c: 174: Num_Sec -= 1;
  2070  0014BC  0602               	decf	PED_Control@Num_Sec,f,c
  2071  0014BE  D000               	goto	l1213
  2072  0014C0                     l1213:
  2073  0014C0  5002               	movf	PED_Control@Num_Sec,w,c
  2074  0014C2  A4D8               	btfss	status,2,c
  2075  0014C4  D7F6               	goto	l1207
  2076                           
  2077                           ;lab6p1.c: 175: }
  2078                           ;lab6p1.c: 176: Clear_Upper_Display();
  2079  0014C6  EC73  F00B         	call	_Clear_Upper_Display	;wreg free
  2080                           
  2081                           ;lab6p1.c: 177: }
  2082  0014CA  D00E               	goto	l143
  2083                           
  2084                           ;lab6p1.c: 178: else
  2085                           ;lab6p1.c: 179: {
  2086                           ;lab6p1.c: 180: while(Num_Sec > 0)
  2087  0014CC  D007               	goto	l1223
  2088  0014CE                     l1217:
  2089                           
  2090                           ;lab6p1.c: 181: {
  2091                           ;lab6p1.c: 182: Display_Lower(Num_Sec - 1);
  2092  0014CE  0402               	decf	PED_Control@Num_Sec,w,c
  2093  0014D0  EC2A  F00B         	call	_Display_Lower
  2094                           
  2095                           ;lab6p1.c: 183: Wait_One_Second_With_Beep();
  2096  0014D4  EC37  F00B         	call	_Wait_One_Second_With_Beep	;wreg free
  2097                           
  2098                           ;lab6p1.c: 184: Num_Sec--;
  2099  0014D8  0602               	decf	PED_Control@Num_Sec,f,c
  2100  0014DA  D000               	goto	l1223
  2101  0014DC                     l1223:
  2102  0014DC  5002               	movf	PED_Control@Num_Sec,w,c
  2103  0014DE  A4D8               	btfss	status,2,c
  2104  0014E0  D7F6               	goto	l1217
  2105                           
  2106                           ;lab6p1.c: 185: }
  2107                           ;lab6p1.c: 186: Clear_Lower_Display();
  2108  0014E2  EC75  F00B         	call	_Clear_Lower_Display	;wreg free
  2109  0014E6  D000               	goto	l143
  2110  0014E8                     l143:
  2111  0014E8  0012               	return		;funcret
  2112  0014EA                     __end_of_PED_Control:
  2113                           	opt stack 0
  2114                           tblptru	equ	0xFF8
  2115                           status	equ	0xFD8
  2116                           
  2117 ;; *************** function _Wait_One_Second_With_Beep *****************
  2118 ;; Defined at:
  2119 ;;		line 191 in file "lab6p1.c"
  2120 ;; Parameters:    Size  Location     Type
  2121 ;;		None
  2122 ;; Auto vars:     Size  Location     Type
  2123 ;;		None
  2124 ;; Return value:  Size  Location     Type
  2125 ;;		None               void
  2126 ;; Registers used:
  2127 ;;		wreg, status,2, cstack
  2128 ;; Tracked objects:
  2129 ;;		On entry : 0/0
  2130 ;;		On exit  : 0/0
  2131 ;;		Unchanged: 0/0
  2132 ;; Data sizes:     COMRAM   BANK0   BANK1   BANK2   BANK3   BANK4   BANK5   BANK6   BANK7   BANK8   BANK9  BANK10  BANK1
      +1  BANK12  BANK13  BANK14  BANK15
  2133 ;;      Params:         0       0       0       0       0       0       0       0       0       0       0       0       
      +0       0       0       0       0
  2134 ;;      Locals:         0       0       0       0       0       0       0       0       0       0       0       0       
      +0       0       0       0       0
  2135 ;;      Temps:          0       0       0       0       0       0       0       0       0       0       0       0       
      +0       0       0       0       0
  2136 ;;      Totals:         0       0       0       0       0       0       0       0       0       0       0       0       
      +0       0       0       0       0
  2137 ;;Total ram usage:        0 bytes
  2138 ;; Hardware stack levels used:    1
  2139 ;; Hardware stack levels required when called:    1
  2140 ;; This function calls:
  2141 ;;		_Activate_Buzzer
  2142 ;;		_Deactivate_Buzzer
  2143 ;;		_Wait_Half_Second
  2144 ;; This function is called by:
  2145 ;;		_PED_Control
  2146 ;; This function uses a non-reentrant model
  2147 ;;
  2148                           
  2149                           	psect	text19
  2150  00166E                     __ptext19:
  2151                           	opt stack 0
  2152  00166E                     _Wait_One_Second_With_Beep:
  2153                           	opt stack 27
  2154                           
  2155                           ;lab6p1.c: 193: PORTDbits.RD7 = 1;
  2156                           
  2157                           ;incstack = 0
  2158  00166E  8E83               	bsf	3971,7,c	;volatile
  2159                           
  2160                           ;lab6p1.c: 194: Activate_Buzzer ();
  2161  001670  EC4C  F00B         	call	_Activate_Buzzer	;wreg free
  2162                           
  2163                           ;lab6p1.c: 195: Wait_Half_Second ();
  2164  001674  EC10  F00B         	call	_Wait_Half_Second	;wreg free
  2165                           
  2166                           ;lab6p1.c: 196: PORTDbits.RD7 = 0;
  2167  001678  9E83               	bcf	3971,7,c	;volatile
  2168                           
  2169                           ;lab6p1.c: 197: Deactivate_Buzzer ();
  2170  00167A  EC6F  F00B         	call	_Deactivate_Buzzer	;wreg free
  2171                           
  2172                           ;lab6p1.c: 198: Wait_Half_Second ();
  2173  00167E  EC10  F00B         	call	_Wait_Half_Second	;wreg free
  2174  001682  0012               	return		;funcret
  2175  001684                     __end_of_Wait_One_Second_With_Beep:
  2176                           	opt stack 0
  2177                           tblptru	equ	0xFF8
  2178                           status	equ	0xFD8
  2179                           
  2180 ;; *************** function _Wait_Half_Second *****************
  2181 ;; Defined at:
  2182 ;;		line 57 in file "lab6p1.c"
  2183 ;; Parameters:    Size  Location     Type
  2184 ;;		None
  2185 ;; Auto vars:     Size  Location     Type
  2186 ;;		None
  2187 ;; Return value:  Size  Location     Type
  2188 ;;		None               void
  2189 ;; Registers used:
  2190 ;;		wreg, status,2
  2191 ;; Tracked objects:
  2192 ;;		On entry : 0/0
  2193 ;;		On exit  : 0/0
  2194 ;;		Unchanged: 0/0
  2195 ;; Data sizes:     COMRAM   BANK0   BANK1   BANK2   BANK3   BANK4   BANK5   BANK6   BANK7   BANK8   BANK9  BANK10  BANK1
      +1  BANK12  BANK13  BANK14  BANK15
  2196 ;;      Params:         0       0       0       0       0       0       0       0       0       0       0       0       
      +0       0       0       0       0
  2197 ;;      Locals:         0       0       0       0       0       0       0       0       0       0       0       0       
      +0       0       0       0       0
  2198 ;;      Temps:          0       0       0       0       0       0       0       0       0       0       0       0       
      +0       0       0       0       0
  2199 ;;      Totals:         0       0       0       0       0       0       0       0       0       0       0       0       
      +0       0       0       0       0
  2200 ;;Total ram usage:        0 bytes
  2201 ;; Hardware stack levels used:    1
  2202 ;; This function calls:
  2203 ;;		Nothing
  2204 ;; This function is called by:
  2205 ;;		_Wait_One_Second
  2206 ;;		_Wait_One_Second_With_Beep
  2207 ;; This function uses a non-reentrant model
  2208 ;;
  2209                           
  2210                           	psect	text20
  2211  001620                     __ptext20:
  2212                           	opt stack 0
  2213  001620                     _Wait_Half_Second:
  2214                           	opt stack 27
  2215                           
  2216                           ;lab6p1.c: 59: T0CON = 0x03;
  2217                           
  2218                           ;incstack = 0
  2219  001620  0E03               	movlw	3
  2220  001622  6ED5               	movwf	4053,c	;volatile
  2221                           
  2222                           ;lab6p1.c: 60: TMR0L = 0xEE;
  2223  001624  0EEE               	movlw	238
  2224  001626  6ED6               	movwf	4054,c	;volatile
  2225                           
  2226                           ;lab6p1.c: 61: TMR0H = 0x85;
  2227  001628  0E85               	movlw	133
  2228  00162A  6ED7               	movwf	4055,c	;volatile
  2229                           
  2230                           ;lab6p1.c: 62: INTCONbits.TMR0IF = 0;
  2231  00162C  94F2               	bcf	intcon,2,c	;volatile
  2232                           
  2233                           ;lab6p1.c: 63: T0CONbits.TMR0ON = 1;
  2234  00162E  8ED5               	bsf	4053,7,c	;volatile
  2235                           
  2236                           ;lab6p1.c: 64: while (INTCONbits.TMR0IF == 0);
  2237  001630  D000               	goto	l81
  2238  001632                     l81:
  2239  001632  A4F2               	btfss	intcon,2,c	;volatile
  2240  001634  D7FE               	goto	l81
  2241                           
  2242                           ;lab6p1.c: 65: T0CONbits.TMR0ON = 0;
  2243  001636  9ED5               	bcf	4053,7,c	;volatile
  2244  001638  0012               	return		;funcret
  2245  00163A                     __end_of_Wait_Half_Second:
  2246                           	opt stack 0
  2247                           tblptru	equ	0xFF8
  2248                           intcon	equ	0xFF2
  2249                           status	equ	0xFD8
  2250                           
  2251 ;; *************** function _Deactivate_Buzzer *****************
  2252 ;; Defined at:
  2253 ;;		line 207 in file "lab6p1.c"
  2254 ;; Parameters:    Size  Location     Type
  2255 ;;		None
  2256 ;; Auto vars:     Size  Location     Type
  2257 ;;		None
  2258 ;; Return value:  Size  Location     Type
  2259 ;;		None               void
  2260 ;; Registers used:
  2261 ;;		wreg, status,2
  2262 ;; Tracked objects:
  2263 ;;		On entry : 0/0
  2264 ;;		On exit  : 0/0
  2265 ;;		Unchanged: 0/0
  2266 ;; Data sizes:     COMRAM   BANK0   BANK1   BANK2   BANK3   BANK4   BANK5   BANK6   BANK7   BANK8   BANK9  BANK10  BANK1
      +1  BANK12  BANK13  BANK14  BANK15
  2267 ;;      Params:         0       0       0       0       0       0       0       0       0       0       0       0       
      +0       0       0       0       0
  2268 ;;      Locals:         0       0       0       0       0       0       0       0       0       0       0       0       
      +0       0       0       0       0
  2269 ;;      Temps:          0       0       0       0       0       0       0       0       0       0       0       0       
      +0       0       0       0       0
  2270 ;;      Totals:         0       0       0       0       0       0       0       0       0       0       0       0       
      +0       0       0       0       0
  2271 ;;Total ram usage:        0 bytes
  2272 ;; Hardware stack levels used:    1
  2273 ;; This function calls:
  2274 ;;		Nothing
  2275 ;; This function is called by:
  2276 ;;		_Wait_One_Second_With_Beep
  2277 ;; This function uses a non-reentrant model
  2278 ;;
  2279                           
  2280                           	psect	text21
  2281  0016DE                     __ptext21:
  2282                           	opt stack 0
  2283  0016DE                     _Deactivate_Buzzer:
  2284                           	opt stack 27
  2285                           
  2286                           ;lab6p1.c: 209: CCP2CON = 0x0;
  2287                           
  2288                           ;incstack = 0
  2289  0016DE  0E00               	movlw	0
  2290  0016E0  6EBA               	movwf	4026,c	;volatile
  2291                           
  2292                           ;lab6p1.c: 210: PORTCbits.RC1 = 0;
  2293  0016E2  9282               	bcf	3970,1,c	;volatile
  2294  0016E4  0012               	return		;funcret
  2295  0016E6                     __end_of_Deactivate_Buzzer:
  2296                           	opt stack 0
  2297                           tblptru	equ	0xFF8
  2298                           intcon	equ	0xFF2
  2299                           status	equ	0xFD8
  2300                           
  2301 ;; *************** function _Activate_Buzzer *****************
  2302 ;; Defined at:
  2303 ;;		line 200 in file "lab6p1.c"
  2304 ;; Parameters:    Size  Location     Type
  2305 ;;		None
  2306 ;; Auto vars:     Size  Location     Type
  2307 ;;		None
  2308 ;; Return value:  Size  Location     Type
  2309 ;;		None               void
  2310 ;; Registers used:
  2311 ;;		wreg, status,2
  2312 ;; Tracked objects:
  2313 ;;		On entry : 0/0
  2314 ;;		On exit  : 0/0
  2315 ;;		Unchanged: 0/0
  2316 ;; Data sizes:     COMRAM   BANK0   BANK1   BANK2   BANK3   BANK4   BANK5   BANK6   BANK7   BANK8   BANK9  BANK10  BANK1
      +1  BANK12  BANK13  BANK14  BANK15
  2317 ;;      Params:         0       0       0       0       0       0       0       0       0       0       0       0       
      +0       0       0       0       0
  2318 ;;      Locals:         0       0       0       0       0       0       0       0       0       0       0       0       
      +0       0       0       0       0
  2319 ;;      Temps:          0       0       0       0       0       0       0       0       0       0       0       0       
      +0       0       0       0       0
  2320 ;;      Totals:         0       0       0       0       0       0       0       0       0       0       0       0       
      +0       0       0       0       0
  2321 ;;Total ram usage:        0 bytes
  2322 ;; Hardware stack levels used:    1
  2323 ;; This function calls:
  2324 ;;		Nothing
  2325 ;; This function is called by:
  2326 ;;		_Wait_One_Second_With_Beep
  2327 ;; This function uses a non-reentrant model
  2328 ;;
  2329                           
  2330                           	psect	text22
  2331  001698                     __ptext22:
  2332                           	opt stack 0
  2333  001698                     _Activate_Buzzer:
  2334                           	opt stack 27
  2335                           
  2336                           ;lab6p1.c: 202: PR2 = 0b11111001 ;
  2337                           
  2338                           ;incstack = 0
  2339  001698  0EF9               	movlw	249
  2340  00169A  6ECB               	movwf	4043,c	;volatile
  2341                           
  2342                           ;lab6p1.c: 203: T2CON = 0b00000101 ;
  2343  00169C  0E05               	movlw	5
  2344  00169E  6ECA               	movwf	4042,c	;volatile
  2345                           
  2346                           ;lab6p1.c: 204: CCPR2L = 0b01001010 ;
  2347  0016A0  0E4A               	movlw	74
  2348  0016A2  6EBB               	movwf	4027,c	;volatile
  2349                           
  2350                           ;lab6p1.c: 205: CCP2CON = 0b00111100 ;
  2351  0016A4  0E3C               	movlw	60
  2352  0016A6  6EBA               	movwf	4026,c	;volatile
  2353  0016A8  0012               	return		;funcret
  2354  0016AA                     __end_of_Activate_Buzzer:
  2355                           	opt stack 0
  2356                           tblptru	equ	0xFF8
  2357                           intcon	equ	0xFF2
  2358                           status	equ	0xFD8
  2359                           
  2360 ;; *************** function _Display_Upper *****************
  2361 ;; Defined at:
  2362 ;;		line 37 in file "lab6p1.c"
  2363 ;; Parameters:    Size  Location     Type
  2364 ;;  num             1    wreg     unsigned char 
  2365 ;; Auto vars:     Size  Location     Type
  2366 ;;  num             1    0[COMRAM] unsigned char 
  2367 ;; Return value:  Size  Location     Type
  2368 ;;		None               void
  2369 ;; Registers used:
  2370 ;;		wreg, status,2, status,0, tblptrl, tblptrh, tblptru, prodl, prodh
  2371 ;; Tracked objects:
  2372 ;;		On entry : 0/0
  2373 ;;		On exit  : 0/0
  2374 ;;		Unchanged: 0/0
  2375 ;; Data sizes:     COMRAM   BANK0   BANK1   BANK2   BANK3   BANK4   BANK5   BANK6   BANK7   BANK8   BANK9  BANK10  BANK1
      +1  BANK12  BANK13  BANK14  BANK15
  2376 ;;      Params:         0       0       0       0       0       0       0       0       0       0       0       0       
      +0       0       0       0       0
  2377 ;;      Locals:         1       0       0       0       0       0       0       0       0       0       0       0       
      +0       0       0       0       0
  2378 ;;      Temps:          0       0       0       0       0       0       0       0       0       0       0       0       
      +0       0       0       0       0
  2379 ;;      Totals:         1       0       0       0       0       0       0       0       0       0       0       0       
      +0       0       0       0       0
  2380 ;;Total ram usage:        1 bytes
  2381 ;; Hardware stack levels used:    1
  2382 ;; This function calls:
  2383 ;;		Nothing
  2384 ;; This function is called by:
  2385 ;;		_PED_Control
  2386 ;; This function uses a non-reentrant model
  2387 ;;
  2388                           
  2389                           	psect	text23
  2390  00163A                     __ptext23:
  2391                           	opt stack 0
  2392  00163A                     _Display_Upper:
  2393                           	opt stack 28
  2394                           
  2395                           ;incstack = 0
  2396                           ;Display_Upper@num stored from wreg
  2397  00163A  6E01               	movwf	Display_Upper@num,c
  2398                           
  2399                           ;lab6p1.c: 39: PORTD = seven_seg_table[num];
  2400  00163C  5001               	movf	Display_Upper@num,w,c
  2401  00163E  0D01               	mullw	1
  2402  001640  0E01               	movlw	low _seven_seg_table
  2403  001642  24F3               	addwf	prodl,w,c
  2404  001644  6EF6               	movwf	tblptrl,c
  2405  001646  0E10               	movlw	high _seven_seg_table
  2406  001648  20F4               	addwfc	prodh,w,c
  2407  00164A  6EF7               	movwf	tblptrh,c
  2408  00164C                     	if	0	;There are less than 3 active tblptr bytes
  2409  00164C                     	endif
  2410  00164C  0008               	tblrd		*
  2411  00164E  CFF5 FF83          	movff	tablat,3971	;volatile
  2412  001652  0012               	return		;funcret
  2413  001654                     __end_of_Display_Upper:
  2414                           	opt stack 0
  2415                           tblptru	equ	0xFF8
  2416                           tblptrh	equ	0xFF7
  2417                           tblptrl	equ	0xFF6
  2418                           tablat	equ	0xFF5
  2419                           prodh	equ	0xFF4
  2420                           prodl	equ	0xFF3
  2421                           intcon	equ	0xFF2
  2422                           status	equ	0xFD8
  2423                           
  2424 ;; *************** function _Display_Lower *****************
  2425 ;; Defined at:
  2426 ;;		line 42 in file "lab6p1.c"
  2427 ;; Parameters:    Size  Location     Type
  2428 ;;  num             1    wreg     unsigned char 
  2429 ;; Auto vars:     Size  Location     Type
  2430 ;;  num             1    0[COMRAM] unsigned char 
  2431 ;; Return value:  Size  Location     Type
  2432 ;;		None               void
  2433 ;; Registers used:
  2434 ;;		wreg, status,2, status,0, tblptrl, tblptrh, tblptru, prodl, prodh
  2435 ;; Tracked objects:
  2436 ;;		On entry : 0/0
  2437 ;;		On exit  : 0/0
  2438 ;;		Unchanged: 0/0
  2439 ;; Data sizes:     COMRAM   BANK0   BANK1   BANK2   BANK3   BANK4   BANK5   BANK6   BANK7   BANK8   BANK9  BANK10  BANK1
      +1  BANK12  BANK13  BANK14  BANK15
  2440 ;;      Params:         0       0       0       0       0       0       0       0       0       0       0       0       
      +0       0       0       0       0
  2441 ;;      Locals:         1       0       0       0       0       0       0       0       0       0       0       0       
      +0       0       0       0       0
  2442 ;;      Temps:          0       0       0       0       0       0       0       0       0       0       0       0       
      +0       0       0       0       0
  2443 ;;      Totals:         1       0       0       0       0       0       0       0       0       0       0       0       
      +0       0       0       0       0
  2444 ;;Total ram usage:        1 bytes
  2445 ;; Hardware stack levels used:    1
  2446 ;; This function calls:
  2447 ;;		Nothing
  2448 ;; This function is called by:
  2449 ;;		_PED_Control
  2450 ;; This function uses a non-reentrant model
  2451 ;;
  2452                           
  2453                           	psect	text24
  2454  001654                     __ptext24:
  2455                           	opt stack 0
  2456  001654                     _Display_Lower:
  2457                           	opt stack 28
  2458                           
  2459                           ;incstack = 0
  2460                           ;Display_Lower@num stored from wreg
  2461  001654  6E01               	movwf	Display_Lower@num,c
  2462                           
  2463                           ;lab6p1.c: 44: PORTC = seven_seg_table[num];
  2464  001656  5001               	movf	Display_Lower@num,w,c
  2465  001658  0D01               	mullw	1
  2466  00165A  0E01               	movlw	low _seven_seg_table
  2467  00165C  24F3               	addwf	prodl,w,c
  2468  00165E  6EF6               	movwf	tblptrl,c
  2469  001660  0E10               	movlw	high _seven_seg_table
  2470  001662  20F4               	addwfc	prodh,w,c
  2471  001664  6EF7               	movwf	tblptrh,c
  2472  001666                     	if	0	;There are less than 3 active tblptr bytes
  2473  001666                     	endif
  2474  001666  0008               	tblrd		*
  2475  001668  CFF5 FF82          	movff	tablat,3970	;volatile
  2476  00166C  0012               	return		;funcret
  2477  00166E                     __end_of_Display_Lower:
  2478                           	opt stack 0
  2479                           tblptru	equ	0xFF8
  2480                           tblptrh	equ	0xFF7
  2481                           tblptrl	equ	0xFF6
  2482                           tablat	equ	0xFF5
  2483                           prodh	equ	0xFF4
  2484                           prodl	equ	0xFF3
  2485                           intcon	equ	0xFF2
  2486                           status	equ	0xFD8
  2487                           
  2488 ;; *************** function _Clear_Upper_Display *****************
  2489 ;; Defined at:
  2490 ;;		line 47 in file "lab6p1.c"
  2491 ;; Parameters:    Size  Location     Type
  2492 ;;		None
  2493 ;; Auto vars:     Size  Location     Type
  2494 ;;		None
  2495 ;; Return value:  Size  Location     Type
  2496 ;;		None               void
  2497 ;; Registers used:
  2498 ;;		None
  2499 ;; Tracked objects:
  2500 ;;		On entry : 0/0
  2501 ;;		On exit  : 0/0
  2502 ;;		Unchanged: 0/0
  2503 ;; Data sizes:     COMRAM   BANK0   BANK1   BANK2   BANK3   BANK4   BANK5   BANK6   BANK7   BANK8   BANK9  BANK10  BANK1
      +1  BANK12  BANK13  BANK14  BANK15
  2504 ;;      Params:         0       0       0       0       0       0       0       0       0       0       0       0       
      +0       0       0       0       0
  2505 ;;      Locals:         0       0       0       0       0       0       0       0       0       0       0       0       
      +0       0       0       0       0
  2506 ;;      Temps:          0       0       0       0       0       0       0       0       0       0       0       0       
      +0       0       0       0       0
  2507 ;;      Totals:         0       0       0       0       0       0       0       0       0       0       0       0       
      +0       0       0       0       0
  2508 ;;Total ram usage:        0 bytes
  2509 ;; Hardware stack levels used:    1
  2510 ;; This function calls:
  2511 ;;		Nothing
  2512 ;; This function is called by:
  2513 ;;		_PED_Control
  2514 ;; This function uses a non-reentrant model
  2515 ;;
  2516                           
  2517                           	psect	text25
  2518  0016E6                     __ptext25:
  2519                           	opt stack 0
  2520  0016E6                     _Clear_Upper_Display:
  2521                           	opt stack 28
  2522                           
  2523                           ;lab6p1.c: 49: PORTD = 0xFF;
  2524                           
  2525                           ;incstack = 0
  2526  0016E6  6883               	setf	3971,c	;volatile
  2527  0016E8  0012               	return		;funcret
  2528  0016EA                     __end_of_Clear_Upper_Display:
  2529                           	opt stack 0
  2530                           tblptru	equ	0xFF8
  2531                           tblptrh	equ	0xFF7
  2532                           tblptrl	equ	0xFF6
  2533                           tablat	equ	0xFF5
  2534                           prodh	equ	0xFF4
  2535                           prodl	equ	0xFF3
  2536                           intcon	equ	0xFF2
  2537                           status	equ	0xFD8
  2538                           
  2539 ;; *************** function _Clear_Lower_Display *****************
  2540 ;; Defined at:
  2541 ;;		line 52 in file "lab6p1.c"
  2542 ;; Parameters:    Size  Location     Type
  2543 ;;		None
  2544 ;; Auto vars:     Size  Location     Type
  2545 ;;		None
  2546 ;; Return value:  Size  Location     Type
  2547 ;;		None               void
  2548 ;; Registers used:
  2549 ;;		None
  2550 ;; Tracked objects:
  2551 ;;		On entry : 0/0
  2552 ;;		On exit  : 0/0
  2553 ;;		Unchanged: 0/0
  2554 ;; Data sizes:     COMRAM   BANK0   BANK1   BANK2   BANK3   BANK4   BANK5   BANK6   BANK7   BANK8   BANK9  BANK10  BANK1
      +1  BANK12  BANK13  BANK14  BANK15
  2555 ;;      Params:         0       0       0       0       0       0       0       0       0       0       0       0       
      +0       0       0       0       0
  2556 ;;      Locals:         0       0       0       0       0       0       0       0       0       0       0       0       
      +0       0       0       0       0
  2557 ;;      Temps:          0       0       0       0       0       0       0       0       0       0       0       0       
      +0       0       0       0       0
  2558 ;;      Totals:         0       0       0       0       0       0       0       0       0       0       0       0       
      +0       0       0       0       0
  2559 ;;Total ram usage:        0 bytes
  2560 ;; Hardware stack levels used:    1
  2561 ;; This function calls:
  2562 ;;		Nothing
  2563 ;; This function is called by:
  2564 ;;		_PED_Control
  2565 ;; This function uses a non-reentrant model
  2566 ;;
  2567                           
  2568                           	psect	text26
  2569  0016EA                     __ptext26:
  2570                           	opt stack 0
  2571  0016EA                     _Clear_Lower_Display:
  2572                           	opt stack 28
  2573                           
  2574                           ;lab6p1.c: 54: PORTC = 0xFF;
  2575                           
  2576                           ;incstack = 0
  2577  0016EA  6882               	setf	3970,c	;volatile
  2578  0016EC  0012               	return		;funcret
  2579  0016EE                     __end_of_Clear_Lower_Display:
  2580                           	opt stack 0
  2581                           tblptru	equ	0xFF8
  2582                           tblptrh	equ	0xFF7
  2583                           tblptrl	equ	0xFF6
  2584                           tablat	equ	0xFF5
  2585                           prodh	equ	0xFF4
  2586                           prodl	equ	0xFF3
  2587                           intcon	equ	0xFF2
  2588                           status	equ	0xFD8
  2589                           tblptru	equ	0xFF8
  2590                           tblptrh	equ	0xFF7
  2591                           tblptrl	equ	0xFF6
  2592                           tablat	equ	0xFF5
  2593                           prodh	equ	0xFF4
  2594                           prodl	equ	0xFF3
  2595                           intcon	equ	0xFF2
  2596                           status	equ	0xFD8
  2597                           
  2598                           	psect	rparam
  2599  0000                     tblptru	equ	0xFF8
  2600                           tblptrh	equ	0xFF7
  2601                           tblptrl	equ	0xFF6
  2602                           tablat	equ	0xFF5
  2603                           prodh	equ	0xFF4
  2604                           prodl	equ	0xFF3
  2605                           intcon	equ	0xFF2
  2606                           status	equ	0xFD8


Data Sizes:
    Strings     0
    Constant    10
    Data        0
    BSS         0
    Persistent  0
    Stack       0

Auto Spaces:
    Space          Size  Autos    Used
    COMRAM          127     31      31
    BANK0           128      0       0
    BANK1           256      0       0
    BANK2           256      0       0
    BANK3           256      0       0
    BANK4           256      0       0
    BANK5           256      0       0
    BANK6           256      0       0
    BANK7           256      0       0
    BANK8           256      0       0
    BANK9           256      0       0
    BANK10          256      0       0
    BANK11          256      0       0
    BANK12          256      0       0
    BANK13          256      0       0
    BANK14          256      0       0
    BANK15          128      0       0

Pointer List with Targets:

    None.

Critical Paths under _main in COMRAM

    _main->___ftmul
    _init_UART->_OpenUSART
    ___lwtoft->___ftpack
    ___ftmul->___lwtoft
    _Night_Mode->_Wait_N_Seconds
    _Day_Mode->_PED_Control
    _PED_Control->_Display_Lower
    _PED_Control->_Display_Upper

Critical Paths under _main in BANK0

    None.

Critical Paths under _main in BANK1

    None.

Critical Paths under _main in BANK2

    None.

Critical Paths under _main in BANK3

    None.

Critical Paths under _main in BANK4

    None.

Critical Paths under _main in BANK5

    None.

Critical Paths under _main in BANK6

    None.

Critical Paths under _main in BANK7

    None.

Critical Paths under _main in BANK8

    None.

Critical Paths under _main in BANK9

    None.

Critical Paths under _main in BANK10

    None.

Critical Paths under _main in BANK11

    None.

Critical Paths under _main in BANK12

    None.

Critical Paths under _main in BANK13

    None.

Critical Paths under _main in BANK14

    None.

Critical Paths under _main in BANK15

    None.

Call Graph Tables:

 ---------------------------------------------------------------------------------
 (Depth) Function   	        Calls       Base Space   Used Autos Params    Refs
 ---------------------------------------------------------------------------------
 (0) _main                                                 5     5      0    4074
                                             26 COMRAM     5     5      0
                           _Day_Mode
                           _Init_ADC
                          _Init_TRIS
                         _Night_Mode
                             ___ftge
                            ___ftmul
                           ___lwtoft
                       _get_full_ADC
                          _init_UART
 ---------------------------------------------------------------------------------
 (1) _init_UART                                            0     0      0     263
                          _OpenUSART
 ---------------------------------------------------------------------------------
 (2) _OpenUSART                                            3     1      2     263
                                              0 COMRAM     3     1      2
 ---------------------------------------------------------------------------------
 (1) _get_full_ADC                                         4     2      2       0
                                              0 COMRAM     4     2      2
 ---------------------------------------------------------------------------------
 (1) ___lwtoft                                             3     0      3    1364
                                              8 COMRAM     3     0      3
                           ___ftpack
 ---------------------------------------------------------------------------------
 (1) ___ftmul                                             15     9      6    1771
                                             11 COMRAM    15     9      6
                           ___ftpack
                           ___lwtoft (ARG)
 ---------------------------------------------------------------------------------
 (2) ___ftpack                                             8     3      5    1299
                                              0 COMRAM     8     3      5
 ---------------------------------------------------------------------------------
 (1) ___ftge                                               9     3      6     222
                                              0 COMRAM     9     3      6
 ---------------------------------------------------------------------------------
 (1) _Night_Mode                                           0     0      0      90
                     _Wait_N_Seconds
                             _set_EW
                           _set_EWLT
                             _set_NS
                           _set_NSLT
 ---------------------------------------------------------------------------------
 (1) _Init_TRIS                                            0     0      0       0
 ---------------------------------------------------------------------------------
 (1) _Init_ADC                                             0     0      0       0
 ---------------------------------------------------------------------------------
 (1) _Day_Mode                                             0     0      0     318
                        _PED_Control
                     _Wait_N_Seconds
                             _set_EW
                           _set_EWLT
                             _set_NS
                           _set_NSLT
 ---------------------------------------------------------------------------------
 (2) _set_NSLT                                             1     1      0      15
                                              0 COMRAM     1     1      0
 ---------------------------------------------------------------------------------
 (2) _set_NS                                               1     1      0      15
                                              0 COMRAM     1     1      0
 ---------------------------------------------------------------------------------
 (2) _set_EWLT                                             1     1      0      15
                                              0 COMRAM     1     1      0
 ---------------------------------------------------------------------------------
 (2) _set_EW                                               1     1      0      15
                                              0 COMRAM     1     1      0
 ---------------------------------------------------------------------------------
 (2) _Wait_N_Seconds                                       2     2      0      30
                                              0 COMRAM     2     2      0
                    _Wait_One_Second
 ---------------------------------------------------------------------------------
 (3) _Wait_One_Second                                      0     0      0       0
                   _Wait_Half_Second
 ---------------------------------------------------------------------------------
 (2) _PED_Control                                          2     1      1     228
                                              1 COMRAM     2     1      1
                _Clear_Lower_Display
                _Clear_Upper_Display
                      _Display_Lower
                      _Display_Upper
          _Wait_One_Second_With_Beep
 ---------------------------------------------------------------------------------
 (3) _Wait_One_Second_With_Beep                            0     0      0       0
                    _Activate_Buzzer
                  _Deactivate_Buzzer
                   _Wait_Half_Second
 ---------------------------------------------------------------------------------
 (4) _Wait_Half_Second                                     0     0      0       0
 ---------------------------------------------------------------------------------
 (4) _Deactivate_Buzzer                                    0     0      0       0
 ---------------------------------------------------------------------------------
 (4) _Activate_Buzzer                                      0     0      0       0
 ---------------------------------------------------------------------------------
 (3) _Display_Upper                                        1     1      0      15
                                              0 COMRAM     1     1      0
 ---------------------------------------------------------------------------------
 (3) _Display_Lower                                        1     1      0      15
                                              0 COMRAM     1     1      0
 ---------------------------------------------------------------------------------
 (3) _Clear_Upper_Display                                  0     0      0       0
 ---------------------------------------------------------------------------------
 (3) _Clear_Lower_Display                                  0     0      0       0
 ---------------------------------------------------------------------------------
 Estimated maximum stack depth 4
 ---------------------------------------------------------------------------------

 Call Graph Graphs:

 _main (ROOT)
   _Day_Mode
     _PED_Control
       _Clear_Lower_Display
       _Clear_Upper_Display
       _Display_Lower
       _Display_Upper
       _Wait_One_Second_With_Beep
         _Activate_Buzzer
         _Deactivate_Buzzer
         _Wait_Half_Second
     _Wait_N_Seconds
       _Wait_One_Second
         _Wait_Half_Second
     _set_EW
     _set_EWLT
     _set_NS
     _set_NSLT
   _Init_ADC
   _Init_TRIS
   _Night_Mode
     _Wait_N_Seconds
       _Wait_One_Second
         _Wait_Half_Second
     _set_EW
     _set_EWLT
     _set_NS
     _set_NSLT
   ___ftge
   ___ftmul
     ___ftpack
     ___lwtoft (ARG)
       ___ftpack
   ___lwtoft
     ___ftpack
   _get_full_ADC
   _init_UART
     _OpenUSART

 Address spaces:
Name               Size   Autos  Total    Cost      Usage
BITCOMRAM           7F      0       0       0        0.0%
EEDATA             400      0       0       0        0.0%
NULL                 0      0       0       0        0.0%
CODE                 0      0       0       0        0.0%
COMRAM              7F     1F      1F       1       24.4%
STACK                0      0       0       2        0.0%
DATA                 0      0       0       3        0.0%
BITBANK0            80      0       0       4        0.0%
BANK0               80      0       0       5        0.0%
BITBANK1           100      0       0       6        0.0%
BANK1              100      0       0       7        0.0%
BITBANK2           100      0       0       8        0.0%
BANK2              100      0       0       9        0.0%
BITBANK3           100      0       0      10        0.0%
BANK3              100      0       0      11        0.0%
BITBANK4           100      0       0      12        0.0%
BANK4              100      0       0      13        0.0%
BITBANK5           100      0       0      14        0.0%
BANK5              100      0       0      15        0.0%
BITBANK6           100      0       0      16        0.0%
BANK6              100      0       0      17        0.0%
BITBANK7           100      0       0      18        0.0%
BANK7              100      0       0      19        0.0%
BITBANK8           100      0       0      20        0.0%
BANK8              100      0       0      21        0.0%
BITBANK9           100      0       0      22        0.0%
BANK9              100      0       0      23        0.0%
BITBANK10          100      0       0      24        0.0%
BANK10             100      0       0      25        0.0%
BITBANK11          100      0       0      26        0.0%
BANK11             100      0       0      27        0.0%
BITBANK12          100      0       0      28        0.0%
BANK12             100      0       0      29        0.0%
BITBANK13          100      0       0      30        0.0%
BANK13             100      0       0      31        0.0%
BITBANK14          100      0       0      32        0.0%
BANK14             100      0       0      33        0.0%
ABS                  0      0       0      34        0.0%
BITBANK15           80      0       0      35        0.0%
BANK15              80      0       0      36        0.0%
BIGRAM             F7F      0       0      37        0.0%
BITSFR               0      0       0      40        0.0%
SFR                  0      0       0      40        0.0%


Microchip Technology PIC18 Macro Assembler V1.34 build -361300703 
Symbol Table                                                                                   Thu Oct 09 15:53:06 2025

         _Wait_One_Second_With_Beep 166E                                  l81 1632  
                               l100 1524                                 l102 1528  
                               l103 152E                                 l111 14F2  
                               l120 1594                                 l104 1532  
                               l112 14F8                                 l121 159A  
                               l105 1554                                 l113 14FC  
                               l122 159E                                 l130 1564  
                               l114 151E                                 l123 15C0  
                               l131 1568                                 l132 158A  
                               l212 147C                                 l109 14EE  
                               l213 147E                                 l118 1590  
                               l214 1488                                 l143 14E8  
                               l127 155A                                 l215 148A  
                               l208 1462                                 l129 155E  
                               l161 122E                                 l217 14A4  
                               l170 15EC                                 l155 12DE  
                               l164 1280                                 l157 1320  
                               l173 1604                                 l615 1102  
                               l528 11C8                                 l609 13B6  
                               l539 11A0                                 l911 1502  
                               l905 1538                                 l923 156E  
                               l917 15A4                                 l765 15E6  
                               l895 160E                                 l899 1616  
                 ?_Wait_Half_Second 0001                                 _PR2 000FCB  
                               u671 101C                                 u691 103A  
                 _Deactivate_Buzzer 16DE                  ??_Wait_Half_Second 0001  
                ?_Deactivate_Buzzer 0001                        __CFG_LVP$OFF 000000  
              PED_Control@Direction 0003                        __CFG_WDT$OFF 000000  
                              l1213 14C0                                l1207 14B2  
                              l1223 14DC                                l1231 1114  
                              l1217 14CE                                l1321 1052  
                              l1243 1168                                l1235 1124  
                              l1315 102A                                l1171 1466  
                              l1163 1452                                l1253 11A8  
                              l1245 1188                                l1237 1130  
                              l1317 1044                                l1247 1194  
                              l1239 1150                                l1343 10AE  
                              l1335 1086                                l1167 145A  
                              l1159 1448                                l1361 1354  
                              l1353 10DC                                l1345 10B4  
                              l1291 1244                                l1275 11F4  
                              l1371 13B2                                l1259 11BA  
                              l1339 1098                                l1179 1474  
                              l1365 1386                                l1349 10C6  
                              l1381 13C6                                l1389 142C  
               ??_Deactivate_Buzzer 0001                                _main 13B8  
               _Clear_Lower_Display 16EA                        ___ftpack@arg 0001  
                      ___ftpack@exp 0004                      ??_get_full_ADC 0003  
                              prodh 000FF4                                prodl 000FF3  
                              start 0000                        ___ftmul@cntr 0019  
                      ___param_bank 000010                        ___ftmul@sign 001A  
         __end_of_Deactivate_Buzzer 16E6                ?_Clear_Lower_Display 0001  
                             ?_main 0001                     __end_of___ftmul 1104  
                             _T0CON 000FD5                               _T2CON 000FCA  
                             _RCSTA 000FAB                               _TMR0H 000FD7  
                             _TMR0L 000FD6                               _SPBRG 000FAF  
                             _PORTB 000F81                               _PORTC 000F82  
                             _PORTD 000F83                               _TRISA 000F92  
                             _TRISB 000F93                               _TRISD 000F95  
                             _TXSTA 000FAC                    Display_Lower@num 0001  
                      ?_PED_Control 0002                   ??_Wait_One_Second 0001  
                     ___ftpack@sign 0005                      __CFG_BOREN$OFF 000000  
                             tablat 000FF5                               status 000FD8  
                  __end_of_Day_Mode 1282                       main@adc_value 001E  
                    _Wait_N_Seconds 1606                    Display_Upper@num 0001  
                   __initialization 16D4                        __end_of_main 1436  
                  __end_of_Init_ADC 16C6               ??_Clear_Lower_Display 0001  
                        _Night_Mode 1282                              ??_main 001B  
                     __activetblptr 000002               Wait_N_Seconds@seconds 0001  
                            _ADCON0 000FC2                              _ADCON1 000FC1  
                            _ADCON2 000FC0                              _ADRESH 000FC4  
                            _ADRESL 000FC3                              _CCPR2L 000FBB  
                  __end_of___ftpack 11CA                    __end_of___lwtoft 15E8  
                            _OSCCON 000FD3                  __size_of_Init_TRIS 000E  
                            _SPBRGH 000FB0              __end_of_Wait_N_Seconds 1620  
                __size_of_OpenUSART 0070                              ___ftge 1322  
          __size_of_Activate_Buzzer 0012                           ??___ftmul 0012  
                            _set_EW 158C                              _set_NS 1520  
        __size_of_Deactivate_Buzzer 0008                    __end_of_set_EWLT 158C  
                  __end_of_set_NSLT 1520               ___ftmul@f3_as_product 0016  
              __end_of_get_full_ADC 1606  __size_of_Wait_One_Second_With_Beep 0016  
                      __mediumconst 0000                              tblptrh 000FF7  
                            tblptrl 000FF6                              tblptru 000FF8  
                     set_EWLT@color 0001                       main@voltage_v 001B  
                        __accesstop 0080             __end_of__initialization 16D4  
                        ___ftge@ff1 0001                          ___ftge@ff2 0004  
                   ?_Wait_N_Seconds 0001                       ___rparam_used 000001  
                        ___ftmul@f1 000C                          ___ftmul@f2 000F  
                    __pcstackCOMRAM 0001                     _seven_seg_table 1001  
                       ?_Night_Mode 0001                   __end_of_Init_TRIS 16B8  
                        ___lwtoft@c 0009                           ?_Day_Mode 0001  
                     set_NSLT@color 0001                   __end_of_OpenUSART 14A6  
              __size_of_PED_Control 0044                         set_EW@color 0001  
                         ?_Init_ADC 0001                  __size_of_init_UART 0014  
         __size_of_Wait_Half_Second 001A                         set_NS@color 0001  
                           ?___ftge 0001               __end_of_Display_Lower 166E  
             __end_of_Display_Upper 1654        __size_of_Clear_Upper_Display 0004  
                           _CCP2CON 000FBA                             ?_set_EW 0001  
                           ?_set_NS 0001                           ?___ftpack 0001  
                   _Wait_One_Second 16C6                           ?___lwtoft 0009  
                 ??_Activate_Buzzer 0001                          ??_Day_Mode 0004  
                        ??_Init_ADC 0001                 __size_of_Night_Mode 00A0  
                         ?_set_EWLT 0001             __end_of_seven_seg_table 100B  
                         ?_set_NSLT 0001                             __Hparam 0000  
                           __Lparam 0000                     __size_of___ftge 0096  
                           ___ftmul 100C               __size_of_get_full_ADC 001E  
                      __psmallconst 1000                             __pcinit 16D4  
                        ??___ftpack 0006                             __ramtop 1000  
                   __size_of_set_EW 0036                     __size_of_set_NS 0036  
                           __ptext0 13B8                             __ptext1 1684  
                           __ptext2 1436                             __ptext3 15E8  
                           __ptext4 15C2                             __ptext5 100C  
                           __ptext6 1104                             __ptext7 1322  
                           __ptext8 1282                             __ptext9 16AA  
                 __end_of_init_UART 1698                          ??___lwtoft 000C  
                         _T0CONbits 000FD5                end_of_initialization 16D4  
                     __Lmediumconst 0000                          ??_set_EWLT 0001  
                        ??_set_NSLT 0001                        _get_full_ADC 15E8  
           __end_of_Wait_One_Second 16D4         __end_of_Clear_Lower_Display 16EE  
                         _RCSTAbits 000FAB                           _PORTAbits 000F80  
                         _PORTBbits 000F81                           _PORTCbits 000F82  
                         _PORTDbits 000F83                           _PORTEbits 000F84  
                         _TRISCbits 000F94                    ??_Wait_N_Seconds 0001  
                  _Wait_Half_Second 1620                           _TXSTAbits 000FAC  
                PED_Control@Num_Sec 0002                         ___ftmul@exp 0015  
                    __end_of___ftge 13B8                        ??_Night_Mode 0003  
                    __end_of_set_EW 15C2                      __end_of_set_NS 1556  
               start_initialization 16D4                           _Init_TRIS 16AA  
                 __size_of_Day_Mode 00B8                 _Clear_Upper_Display 16E6  
                         _OpenUSART 1436                    __CFG_OSC$INTIO67 000000  
                 __size_of_Init_ADC 000E                  __end_of_Night_Mode 1322  
                   Wait_N_Seconds@I 0002                     _Activate_Buzzer 1698  
                  ?_Wait_One_Second 0001                            ??___ftge 0007  
              ?_Clear_Upper_Display 0001                            ??_set_EW 0001  
                          ??_set_NS 0001                   __size_of___ftpack 00C6  
                     ??_PED_Control 0003                   __size_of___lwtoft 0026  
                        ?_Init_TRIS 0001          ?_Wait_One_Second_With_Beep 0001  
                        ?_OpenUSART 0001                   __size_of_set_EWLT 0036  
                 __size_of_set_NSLT 0036               ??_Clear_Upper_Display 0001  
                          ?___ftmul 000C                         __smallconst 1000  
                         _init_UART 1684              __size_of_Display_Lower 001A  
            __size_of_Display_Upper 001A   __end_of_Wait_One_Second_With_Beep 1684  
               __end_of_PED_Control 14EA             __end_of_Activate_Buzzer 16AA  
                          _PIE1bits 000F9D                            _PIR1bits 000F9E  
                        _ADCON0bits 000FC2            __end_of_Wait_Half_Second 163A  
                          _Day_Mode 11CA                         ??_Init_TRIS 0001  
                        ?_init_UART 0001                            _Init_ADC 16B8  
                       ??_OpenUSART 0003                     OpenUSART@config 0003  
                          __Hrparam 0000                            __Lrparam 0000  
                     _Display_Lower 1654                       _Display_Upper 163A  
                  __size_of___ftmul 00F8                            ___ftpack 1104  
      __size_of_Clear_Lower_Display 0004                            ___lwtoft 15C2  
                       _PED_Control 14A6                            __ptext10 16B8  
                          __ptext11 11CA                            __ptext20 1620  
                          __ptext12 14EA                            __ptext21 16DE  
                          __ptext13 1520                            __ptext22 1698  
                          __ptext14 1556                            __ptext23 163A  
                          __ptext15 158C                            __ptext24 1654  
                          __ptext16 1606                            __ptext25 16E6  
                          __ptext17 16C6                            __ptext26 16EA  
                          __ptext18 14A6                            __ptext19 166E  
                  ?_Activate_Buzzer 0001                       __size_of_main 007E  
                          _set_EWLT 1556                            _set_NSLT 14EA  
                    ?_Display_Lower 0001                      ?_Display_Upper 0001  
                        _INTCONbits 000FF2                      OpenUSART@spbrg 0001  
                       ??_init_UART 0004         ??_Wait_One_Second_With_Beep 0001  
           __size_of_Wait_N_Seconds 001A            __size_of_Wait_One_Second 000E  
                     ?_get_full_ADC 0001         __end_of_Clear_Upper_Display 16EA  
                   ??_Display_Lower 0001                     ??_Display_Upper 0001  
